
C:\YANG\10003_language\LS\benchmarks\string\string_ls_aot.exe:	file format coff-x86-64

Disassembly of section .text:

0000000140001000 <.text>:
140001000: 41 57                       	pushq	%r15
140001002: 41 56                       	pushq	%r14
140001004: 41 55                       	pushq	%r13
140001006: 41 54                       	pushq	%r12
140001008: 56                          	pushq	%rsi
140001009: 57                          	pushq	%rdi
14000100a: 55                          	pushq	%rbp
14000100b: 53                          	pushq	%rbx
14000100c: 48 83 ec 38                 	subq	$0x38, %rsp
140001010: 44 89 cd                    	movl	%r9d, %ebp
140001013: 4c 89 c3                    	movq	%r8, %rbx
140001016: 41 89 d5                    	movl	%edx, %r13d
140001019: 49 89 cc                    	movq	%rcx, %r12
14000101c: 4c 8b b4 24 b0 00 00 00     	movq	0xb0(%rsp), %r14
140001024: 8b bc 24 a8 00 00 00        	movl	0xa8(%rsp), %edi
14000102b: 4c 89 c2                    	movq	%r8, %rdx
14000102e: e8 73 18 00 00              	callq	0x1400028a6 <.text+0x18a6>
140001033: 48 63 f5                    	movslq	%ebp, %rsi
140001036: 45 31 ff                    	xorl	%r15d, %r15d
140001039: 48 85 c0                    	testq	%rax, %rax
14000103c: 74 18                       	je	0x140001056 <.text+0x56>
14000103e: 66 90                       	nop
140001040: 41 ff c7                    	incl	%r15d
140001043: 48 01 f0                    	addq	%rsi, %rax
140001046: 48 89 c1                    	movq	%rax, %rcx
140001049: 48 89 da                    	movq	%rbx, %rdx
14000104c: e8 55 18 00 00              	callq	0x1400028a6 <.text+0x18a6>
140001051: 48 85 c0                    	testq	%rax, %rax
140001054: 75 ea                       	jne	0x140001040 <.text+0x40>
140001056: 89 f8                       	movl	%edi, %eax
140001058: 29 e8                       	subl	%ebp, %eax
14000105a: 41 0f af c7                 	imull	%r15d, %eax
14000105e: 42 8d 0c 28                 	leal	(%rax,%r13), %ecx
140001062: 41 89 0e                    	movl	%ecx, (%r14)
140001065: 4c 89 6c 24 30              	movq	%r13, 0x30(%rsp)
14000106a: 42 8d 0c 28                 	leal	(%rax,%r13), %ecx
14000106e: ff c1                       	incl	%ecx
140001070: e8 9b 17 00 00              	callq	0x140002810 <.text+0x1810>
140001075: 49 89 c6                    	movq	%rax, %r14
140001078: 4c 89 e1                    	movq	%r12, %rcx
14000107b: 48 89 da                    	movq	%rbx, %rdx
14000107e: e8 23 18 00 00              	callq	0x1400028a6 <.text+0x18a6>
140001083: 4c 89 64 24 28              	movq	%r12, 0x28(%rsp)
140001088: 4c 89 e5                    	movq	%r12, %rbp
14000108b: 4c 89 74 24 20              	movq	%r14, 0x20(%rsp)
140001090: 48 85 c0                    	testq	%rax, %rax
140001093: 74 67                       	je	0x1400010fc <.text+0xfc>
140001095: 49 89 c7                    	movq	%rax, %r15
140001098: 41 89 fd                    	movl	%edi, %r13d
14000109b: 4c 63 e7                    	movslq	%edi, %r12
14000109e: 48 8b 7c 24 20              	movq	0x20(%rsp), %rdi
1400010a3: 48 8b 6c 24 28              	movq	0x28(%rsp), %rbp
1400010a8: 0f 1f 84 00 00 00 00 00     	nopl	(%rax,%rax)
1400010b0: 4d 89 fe                    	movq	%r15, %r14
1400010b3: 49 29 ee                    	subq	%rbp, %r14
1400010b6: 48 89 f9                    	movq	%rdi, %rcx
1400010b9: 48 89 ea                    	movq	%rbp, %rdx
1400010bc: 4d 89 f0                    	movq	%r14, %r8
1400010bf: e8 e8 17 00 00              	callq	0x1400028ac <.text+0x18ac>
1400010c4: 4d 63 f6                    	movslq	%r14d, %r14
1400010c7: 49 01 fe                    	addq	%rdi, %r14
1400010ca: 4c 89 f1                    	movq	%r14, %rcx
1400010cd: 48 8b 94 24 a0 00 00 00     	movq	0xa0(%rsp), %rdx
1400010d5: 4d 89 e8                    	movq	%r13, %r8
1400010d8: e8 cf 17 00 00              	callq	0x1400028ac <.text+0x18ac>
1400010dd: 4d 01 e6                    	addq	%r12, %r14
1400010e0: 4c 89 fd                    	movq	%r15, %rbp
1400010e3: 48 01 f5                    	addq	%rsi, %rbp
1400010e6: 48 89 e9                    	movq	%rbp, %rcx
1400010e9: 48 89 da                    	movq	%rbx, %rdx
1400010ec: e8 b5 17 00 00              	callq	0x1400028a6 <.text+0x18a6>
1400010f1: 49 89 c7                    	movq	%rax, %r15
1400010f4: 4c 89 f7                    	movq	%r14, %rdi
1400010f7: 48 85 c0                    	testq	%rax, %rax
1400010fa: 75 b4                       	jne	0x1400010b0 <.text+0xb0>
1400010fc: 48 63 44 24 30              	movslq	0x30(%rsp), %rax
140001101: 4c 8b 44 24 28              	movq	0x28(%rsp), %r8
140001106: 49 01 c0                    	addq	%rax, %r8
140001109: 49 29 e8                    	subq	%rbp, %r8
14000110c: 49 ff c0                    	incq	%r8
14000110f: 4c 89 f1                    	movq	%r14, %rcx
140001112: 48 89 ea                    	movq	%rbp, %rdx
140001115: e8 92 17 00 00              	callq	0x1400028ac <.text+0x18ac>
14000111a: 48 8b 44 24 20              	movq	0x20(%rsp), %rax
14000111f: 48 83 c4 38                 	addq	$0x38, %rsp
140001123: 5b                          	popq	%rbx
140001124: 5d                          	popq	%rbp
140001125: 5f                          	popq	%rdi
140001126: 5e                          	popq	%rsi
140001127: 41 5c                       	popq	%r12
140001129: 41 5d                       	popq	%r13
14000112b: 41 5e                       	popq	%r14
14000112d: 41 5f                       	popq	%r15
14000112f: c3                          	retq
140001130: 41 57                       	pushq	%r15
140001132: 41 56                       	pushq	%r14
140001134: 41 55                       	pushq	%r13
140001136: 41 54                       	pushq	%r12
140001138: 56                          	pushq	%rsi
140001139: 57                          	pushq	%rdi
14000113a: 55                          	pushq	%rbp
14000113b: 53                          	pushq	%rbx
14000113c: 48 83 ec 48                 	subq	$0x48, %rsp
140001140: 41 89 d6                    	movl	%edx, %r14d
140001143: 48 89 cd                    	movq	%rcx, %rbp
140001146: 48 8b b4 24 c0 00 00 00     	movq	0xc0(%rsp), %rsi
14000114e: 4c 8b ac 24 b8 00 00 00     	movq	0xb8(%rsp), %r13
140001156: 4c 8b bc 24 b0 00 00 00     	movq	0xb0(%rsp), %r15
14000115e: 45 85 c9                    	testl	%r9d, %r9d
140001161: 74 44                       	je	0x1400011a7 <.text+0x1a7>
140001163: 44 89 cb                    	movl	%r9d, %ebx
140001166: 4d 89 c4                    	movq	%r8, %r12
140001169: 48 89 e9                    	movq	%rbp, %rcx
14000116c: 4c 89 c2                    	movq	%r8, %rdx
14000116f: e8 32 17 00 00              	callq	0x1400028a6 <.text+0x18a6>
140001174: 48 63 db                    	movslq	%ebx, %rbx
140001177: 48 85 c0                    	testq	%rax, %rax
14000117a: 4c 89 74 24 28              	movq	%r14, 0x28(%rsp)
14000117f: 74 7a                       	je	0x1400011fb <.text+0x1fb>
140001181: 31 ff                       	xorl	%edi, %edi
140001183: 66 66 66 66 2e 0f 1f 84 00 00 00 00 00      	nopw	%cs:(%rax,%rax)
140001190: ff c7                       	incl	%edi
140001192: 48 01 d8                    	addq	%rbx, %rax
140001195: 48 89 c1                    	movq	%rax, %rcx
140001198: 4c 89 e2                    	movq	%r12, %rdx
14000119b: e8 06 17 00 00              	callq	0x1400028a6 <.text+0x18a6>
1400011a0: 48 85 c0                    	testq	%rax, %rax
1400011a3: 75 eb                       	jne	0x140001190 <.text+0x190>
1400011a5: eb 56                       	jmp	0x1400011fd <.text+0x1fd>
1400011a7: b9 10 00 00 00              	movl	$0x10, %ecx
1400011ac: e8 5f 16 00 00              	callq	0x140002810 <.text+0x1810>
1400011b1: 48 89 c3                    	movq	%rax, %rbx
1400011b4: 41 8d 7e 01                 	leal	0x1(%r14), %edi
1400011b8: 83 ff 11                    	cmpl	$0x11, %edi
1400011bb: 41 bf 10 00 00 00           	movl	$0x10, %r15d
1400011c1: 44 0f 43 ff                 	cmovael	%edi, %r15d
1400011c5: 4c 89 f9                    	movq	%r15, %rcx
1400011c8: e8 43 16 00 00              	callq	0x140002810 <.text+0x1810>
1400011cd: 49 89 c4                    	movq	%rax, %r12
1400011d0: 48 89 c1                    	movq	%rax, %rcx
1400011d3: 48 89 ea                    	movq	%rbp, %rdx
1400011d6: 49 89 f8                    	movq	%rdi, %r8
1400011d9: e8 ce 16 00 00              	callq	0x1400028ac <.text+0x18ac>
1400011de: 4c 89 23                    	movq	%r12, (%rbx)
1400011e1: 44 89 73 08                 	movl	%r14d, 0x8(%rbx)
1400011e5: 44 89 7b 0c                 	movl	%r15d, 0xc(%rbx)
1400011e9: 4c 8b bc 24 b0 00 00 00     	movq	0xb0(%rsp), %r15
1400011f1: b8 01 00 00 00              	movl	$0x1, %eax
1400011f6: e9 e0 00 00 00              	jmp	0x1400012db <.text+0x2db>
1400011fb: 31 ff                       	xorl	%edi, %edi
1400011fd: 48 89 5c 24 40              	movq	%rbx, 0x40(%rsp)
140001202: 8d 47 01                    	leal	0x1(%rdi), %eax
140001205: 48 89 44 24 30              	movq	%rax, 0x30(%rsp)
14000120a: 48 89 c1                    	movq	%rax, %rcx
14000120d: 48 c1 e1 04                 	shlq	$0x4, %rcx
140001211: 49 89 ce                    	movq	%rcx, %r14
140001214: e8 f7 15 00 00              	callq	0x140002810 <.text+0x1810>
140001219: 48 89 c3                    	movq	%rax, %rbx
14000121c: 81 ff fe ff ff 7f           	cmpl	$0x7ffffffe, %edi       # imm = 0x7FFFFFFE
140001222: 0f 87 ae 00 00 00           	ja	0x1400012d6 <.text+0x2d6>
140001228: 48 63 44 24 28              	movslq	0x28(%rsp), %rax
14000122d: 48 01 e8                    	addq	%rbp, %rax
140001230: 48 89 44 24 28              	movq	%rax, 0x28(%rsp)
140001235: 31 ff                       	xorl	%edi, %edi
140001237: 4c 89 74 24 38              	movq	%r14, 0x38(%rsp)
14000123c: 0f 1f 40 00                 	nopl	(%rax)
140001240: 48 89 e9                    	movq	%rbp, %rcx
140001243: 4c 89 e2                    	movq	%r12, %rdx
140001246: e8 5b 16 00 00              	callq	0x1400028a6 <.text+0x18a6>
14000124b: 49 89 c6                    	movq	%rax, %r14
14000124e: 48 8b 44 24 40              	movq	0x40(%rsp), %rax
140001253: 49 8d 34 06                 	leaq	(%r14,%rax), %rsi
140001257: 4d 85 f6                    	testq	%r14, %r14
14000125a: 48 8b 44 24 28              	movq	0x28(%rsp), %rax
14000125f: 4c 0f 44 f0                 	cmoveq	%rax, %r14
140001263: 48 0f 44 f0                 	cmoveq	%rax, %rsi
140001267: 49 29 ee                    	subq	%rbp, %r14
14000126a: 4d 89 e7                    	movq	%r12, %r15
14000126d: 45 8d 66 01                 	leal	0x1(%r14), %r12d
140001271: 41 83 fc 11                 	cmpl	$0x11, %r12d
140001275: b8 10 00 00 00              	movl	$0x10, %eax
14000127a: 44 0f 42 e0                 	cmovbl	%eax, %r12d
14000127e: 4c 89 e1                    	movq	%r12, %rcx
140001281: e8 8a 15 00 00              	callq	0x140002810 <.text+0x1810>
140001286: 49 89 c5                    	movq	%rax, %r13
140001289: 48 89 c1                    	movq	%rax, %rcx
14000128c: 48 89 ea                    	movq	%rbp, %rdx
14000128f: 4d 89 f0                    	movq	%r14, %r8
140001292: e8 15 16 00 00              	callq	0x1400028ac <.text+0x18ac>
140001297: 49 63 c6                    	movslq	%r14d, %rax
14000129a: 41 c6 44 05 00 00           	movb	$0x0, (%r13,%rax)
1400012a0: 4c 89 2c 3b                 	movq	%r13, (%rbx,%rdi)
1400012a4: 89 44 3b 08                 	movl	%eax, 0x8(%rbx,%rdi)
1400012a8: 44 89 64 3b 0c              	movl	%r12d, 0xc(%rbx,%rdi)
1400012ad: 4d 89 fc                    	movq	%r15, %r12
1400012b0: 48 83 c7 10                 	addq	$0x10, %rdi
1400012b4: 48 89 f5                    	movq	%rsi, %rbp
1400012b7: 48 39 7c 24 38              	cmpq	%rdi, 0x38(%rsp)
1400012bc: 75 82                       	jne	0x140001240 <.text+0x240>
1400012be: 48 8b b4 24 c0 00 00 00     	movq	0xc0(%rsp), %rsi
1400012c6: 4c 8b ac 24 b8 00 00 00     	movq	0xb8(%rsp), %r13
1400012ce: 4c 8b bc 24 b0 00 00 00     	movq	0xb0(%rsp), %r15
1400012d6: 48 8b 44 24 30              	movq	0x30(%rsp), %rax
1400012db: 49 89 1f                    	movq	%rbx, (%r15)
1400012de: 41 89 45 00                 	movl	%eax, (%r13)
1400012e2: 89 06                       	movl	%eax, (%rsi)
1400012e4: 48 83 c4 48                 	addq	$0x48, %rsp
1400012e8: 5b                          	popq	%rbx
1400012e9: 5d                          	popq	%rbp
1400012ea: 5f                          	popq	%rdi
1400012eb: 5e                          	popq	%rsi
1400012ec: 41 5c                       	popq	%r12
1400012ee: 41 5d                       	popq	%r13
1400012f0: 41 5e                       	popq	%r14
1400012f2: 41 5f                       	popq	%r15
1400012f4: c3                          	retq
1400012f5: 66 66 2e 0f 1f 84 00 00 00 00 00    	nopw	%cs:(%rax,%rax)
140001300: 41 57                       	pushq	%r15
140001302: 41 56                       	pushq	%r14
140001304: 41 55                       	pushq	%r13
140001306: 41 54                       	pushq	%r12
140001308: 56                          	pushq	%rsi
140001309: 57                          	pushq	%rdi
14000130a: 55                          	pushq	%rbp
14000130b: 53                          	pushq	%rbx
14000130c: 48 83 ec 68                 	subq	$0x68, %rsp
140001310: 66 0f 7f 74 24 50           	movdqa	%xmm6, 0x50(%rsp)
140001316: 4c 8b b4 24 d0 00 00 00     	movq	0xd0(%rsp), %r14
14000131e: 85 d2                       	testl	%edx, %edx
140001320: 74 38                       	je	0x14000135a <.text+0x35a>
140001322: 7e 3d                       	jle	0x140001361 <.text+0x361>
140001324: 48 89 cd                    	movq	%rcx, %rbp
140001327: 44 8b 69 08                 	movl	0x8(%rcx), %r13d
14000132b: 83 fa 01                    	cmpl	$0x1, %edx
14000132e: 75 5d                       	jne	0x14000138d <.text+0x38d>
140001330: 41 8d 4d 01                 	leal	0x1(%r13), %ecx
140001334: e8 d7 14 00 00              	callq	0x140002810 <.text+0x1810>
140001339: 48 89 c7                    	movq	%rax, %rdi
14000133c: 48 8b 55 00                 	movq	(%rbp), %rdx
140001340: 48 63 75 08                 	movslq	0x8(%rbp), %rsi
140001344: 41 89 f0                    	movl	%esi, %r8d
140001347: 48 89 c1                    	movq	%rax, %rcx
14000134a: e8 5d 15 00 00              	callq	0x1400028ac <.text+0x18ac>
14000134f: 48 89 f8                    	movq	%rdi, %rax
140001352: 48 89 fb                    	movq	%rdi, %rbx
140001355: 48 01 f3                    	addq	%rsi, %rbx
140001358: eb 17                       	jmp	0x140001371 <.text+0x371>
14000135a: b9 10 00 00 00              	movl	$0x10, %ecx
14000135f: eb 05                       	jmp	0x140001366 <.text+0x366>
140001361: b9 01 00 00 00              	movl	$0x1, %ecx
140001366: e8 a5 14 00 00              	callq	0x140002810 <.text+0x1810>
14000136b: 48 89 c3                    	movq	%rax, %rbx
14000136e: 45 31 ed                    	xorl	%r13d, %r13d
140001371: c6 03 00                    	movb	$0x0, (%rbx)
140001374: 45 89 2e                    	movl	%r13d, (%r14)
140001377: 0f 28 74 24 50              	movaps	0x50(%rsp), %xmm6
14000137c: 48 83 c4 68                 	addq	$0x68, %rsp
140001380: 5b                          	popq	%rbx
140001381: 5d                          	popq	%rbp
140001382: 5f                          	popq	%rdi
140001383: 5e                          	popq	%rsi
140001384: 41 5c                       	popq	%r12
140001386: 41 5d                       	popq	%r13
140001388: 41 5e                       	popq	%r14
14000138a: 41 5f                       	popq	%r15
14000138c: c3                          	retq
14000138d: 4c 89 c7                    	movq	%r8, %rdi
140001390: 89 d0                       	movl	%edx, %eax
140001392: 4c 8d 78 ff                 	leaq	-0x1(%rax), %r15
140001396: b9 01 00 00 00              	movl	$0x1, %ecx
14000139b: 83 fa 09                    	cmpl	$0x9, %edx
14000139e: 73 07                       	jae	0x1400013a7 <.text+0x3a7>
1400013a0: 89 d6                       	movl	%edx, %esi
1400013a2: e9 ac 00 00 00              	jmp	0x140001453 <.text+0x453>
1400013a7: 4d 89 f8                    	movq	%r15, %r8
1400013aa: 49 83 e0 f8                 	andq	$-0x8, %r8
1400013ae: 49 8d 48 01                 	leaq	0x1(%r8), %rcx
1400013b2: 66 41 0f 6e c5              	movd	%r13d, %xmm0
1400013b7: 66 41 0f 6e c9              	movd	%r9d, %xmm1
1400013bc: 66 0f 70 d1 00              	pshufd	$0x0, %xmm1, %xmm2      # xmm2 = xmm1[0,0,0,0]
1400013c1: 4c 8d 95 88 00 00 00        	leaq	0x88(%rbp), %r10
1400013c8: 66 0f ef c9                 	pxor	%xmm1, %xmm1
1400013cc: 4d 89 c3                    	movq	%r8, %r11
1400013cf: 90                          	nop
1400013d0: 66 41 0f 6e 5a c0           	movd	-0x40(%r10), %xmm3
1400013d6: 66 41 0f 6e 62 b0           	movd	-0x50(%r10), %xmm4
1400013dc: 66 0f 62 e3                 	punpckldq	%xmm3, %xmm4    # xmm4 = xmm4[0],xmm3[0],xmm4[1],xmm3[1]
1400013e0: 66 41 0f 6e 5a a0           	movd	-0x60(%r10), %xmm3
1400013e6: 66 41 0f 6e 6a 90           	movd	-0x70(%r10), %xmm5
1400013ec: 66 0f 62 eb                 	punpckldq	%xmm3, %xmm5    # xmm5 = xmm5[0],xmm3[0],xmm5[1],xmm3[1]
1400013f0: 66 0f 6c ec                 	punpcklqdq	%xmm4, %xmm5    # xmm5 = xmm5[0],xmm4[0]
1400013f4: 66 41 0f 6e 1a              	movd	(%r10), %xmm3
1400013f9: 66 41 0f 6e 62 f0           	movd	-0x10(%r10), %xmm4
1400013ff: 66 0f 62 e3                 	punpckldq	%xmm3, %xmm4    # xmm4 = xmm4[0],xmm3[0],xmm4[1],xmm3[1]
140001403: 66 41 0f 6e 5a e0           	movd	-0x20(%r10), %xmm3
140001409: 66 41 0f 6e 72 d0           	movd	-0x30(%r10), %xmm6
14000140f: 66 0f 62 f3                 	punpckldq	%xmm3, %xmm6    # xmm6 = xmm6[0],xmm3[0],xmm6[1],xmm3[1]
140001413: 66 0f 6c f4                 	punpcklqdq	%xmm4, %xmm6    # xmm6 = xmm6[0],xmm4[0]
140001417: 66 0f fe c2                 	paddd	%xmm2, %xmm0
14000141b: 66 0f fe c5                 	paddd	%xmm5, %xmm0
14000141f: 66 0f fe ca                 	paddd	%xmm2, %xmm1
140001423: 66 0f fe ce                 	paddd	%xmm6, %xmm1
140001427: 49 83 ea 80                 	subq	$-0x80, %r10
14000142b: 49 83 c3 f8                 	addq	$-0x8, %r11
14000142f: 75 9f                       	jne	0x1400013d0 <.text+0x3d0>
140001431: 89 d6                       	movl	%edx, %esi
140001433: 66 0f fe c8                 	paddd	%xmm0, %xmm1
140001437: 66 0f 70 c1 ee              	pshufd	$0xee, %xmm1, %xmm0     # xmm0 = xmm1[2,3,2,3]
14000143c: 66 0f fe c1                 	paddd	%xmm1, %xmm0
140001440: 66 0f 70 c8 55              	pshufd	$0x55, %xmm0, %xmm1     # xmm1 = xmm0[1,1,1,1]
140001445: 66 0f fe c8                 	paddd	%xmm0, %xmm1
140001449: 66 41 0f 7e cd              	movd	%xmm1, %r13d
14000144e: 4d 39 c7                    	cmpq	%r8, %r15
140001451: 74 2c                       	je	0x14000147f <.text+0x47f>
140001453: 48 29 c8                    	subq	%rcx, %rax
140001456: 48 c1 e1 04                 	shlq	$0x4, %rcx
14000145a: 48 01 e9                    	addq	%rbp, %rcx
14000145d: 48 83 c1 08                 	addq	$0x8, %rcx
140001461: 66 66 66 66 66 66 2e 0f 1f 84 00 00 00 00 00	nopw	%cs:(%rax,%rax)
140001470: 45 01 cd                    	addl	%r9d, %r13d
140001473: 44 03 29                    	addl	(%rcx), %r13d
140001476: 48 83 c1 10                 	addq	$0x10, %rcx
14000147a: 48 ff c8                    	decq	%rax
14000147d: 75 f1                       	jne	0x140001470 <.text+0x470>
14000147f: 44 89 cb                    	movl	%r9d, %ebx
140001482: 41 8d 4d 01                 	leal	0x1(%r13), %ecx
140001486: e8 85 13 00 00              	callq	0x140002810 <.text+0x1810>
14000148b: 85 f6                       	testl	%esi, %esi
14000148d: 7e 42                       	jle	0x1400014d1 <.text+0x4d1>
14000148f: 4c 89 7c 24 38              	movq	%r15, 0x38(%rsp)
140001494: 48 89 7c 24 28              	movq	%rdi, 0x28(%rsp)
140001499: 41 89 df                    	movl	%ebx, %r15d
14000149c: 4c 63 f3                    	movslq	%ebx, %r14
14000149f: 48 8b 55 00                 	movq	(%rbp), %rdx
1400014a3: 4c 63 65 08                 	movslq	0x8(%rbp), %r12
1400014a7: 45 89 e0                    	movl	%r12d, %r8d
1400014aa: 48 89 c1                    	movq	%rax, %rcx
1400014ad: 48 89 c3                    	movq	%rax, %rbx
1400014b0: e8 f7 13 00 00              	callq	0x1400028ac <.text+0x18ac>
1400014b5: 48 89 5c 24 30              	movq	%rbx, 0x30(%rsp)
1400014ba: 4c 01 e3                    	addq	%r12, %rbx
1400014bd: 83 fe 02                    	cmpl	$0x2, %esi
1400014c0: 48 89 6c 24 40              	movq	%rbp, 0x40(%rsp)
1400014c5: 75 12                       	jne	0x1400014d9 <.text+0x4d9>
1400014c7: bd 01 00 00 00              	movl	$0x1, %ebp
1400014cc: e9 9a 00 00 00              	jmp	0x14000156b <.text+0x56b>
1400014d1: 48 89 c3                    	movq	%rax, %rbx
1400014d4: e9 98 fe ff ff              	jmp	0x140001371 <.text+0x371>
1400014d9: 4c 8d 65 28                 	leaq	0x28(%rbp), %r12
1400014dd: 48 8b 44 24 38              	movq	0x38(%rsp), %rax
1400014e2: 48 83 e0 fe                 	andq	$-0x2, %rax
1400014e6: 48 f7 d8                    	negq	%rax
1400014e9: 48 89 44 24 48              	movq	%rax, 0x48(%rsp)
1400014ee: bd 01 00 00 00              	movl	$0x1, %ebp
1400014f3: 48 8b 74 24 28              	movq	0x28(%rsp), %rsi
1400014f8: 0f 1f 84 00 00 00 00 00     	nopl	(%rax,%rax)
140001500: 48 89 d9                    	movq	%rbx, %rcx
140001503: 48 89 f2                    	movq	%rsi, %rdx
140001506: 4d 89 f8                    	movq	%r15, %r8
140001509: e8 9e 13 00 00              	callq	0x1400028ac <.text+0x18ac>
14000150e: 4c 01 f3                    	addq	%r14, %rbx
140001511: 49 8b 54 24 e8              	movq	-0x18(%r12), %rdx
140001516: 49 63 7c 24 f0              	movslq	-0x10(%r12), %rdi
14000151b: 41 89 f8                    	movl	%edi, %r8d
14000151e: 48 89 d9                    	movq	%rbx, %rcx
140001521: e8 86 13 00 00              	callq	0x1400028ac <.text+0x18ac>
140001526: 48 01 fb                    	addq	%rdi, %rbx
140001529: 48 89 d9                    	movq	%rbx, %rcx
14000152c: 48 89 f2                    	movq	%rsi, %rdx
14000152f: 4d 89 f8                    	movq	%r15, %r8
140001532: e8 75 13 00 00              	callq	0x1400028ac <.text+0x18ac>
140001537: 4c 01 f3                    	addq	%r14, %rbx
14000153a: 49 8b 54 24 f8              	movq	-0x8(%r12), %rdx
14000153f: 49 63 3c 24                 	movslq	(%r12), %rdi
140001543: 41 89 f8                    	movl	%edi, %r8d
140001546: 48 89 d9                    	movq	%rbx, %rcx
140001549: e8 5e 13 00 00              	callq	0x1400028ac <.text+0x18ac>
14000154e: 48 01 fb                    	addq	%rdi, %rbx
140001551: 49 83 c4 20                 	addq	$0x20, %r12
140001555: 48 8b 44 24 48              	movq	0x48(%rsp), %rax
14000155a: 48 01 e8                    	addq	%rbp, %rax
14000155d: 48 83 c0 02                 	addq	$0x2, %rax
140001561: 48 83 c5 02                 	addq	$0x2, %rbp
140001565: 48 83 f8 01                 	cmpq	$0x1, %rax
140001569: 75 95                       	jne	0x140001500 <.text+0x500>
14000156b: f6 44 24 38 01              	testb	$0x1, 0x38(%rsp)
140001570: 74 36                       	je	0x1400015a8 <.text+0x5a8>
140001572: 48 89 d9                    	movq	%rbx, %rcx
140001575: 48 8b 54 24 28              	movq	0x28(%rsp), %rdx
14000157a: 4d 89 f8                    	movq	%r15, %r8
14000157d: e8 2a 13 00 00              	callq	0x1400028ac <.text+0x18ac>
140001582: 49 01 de                    	addq	%rbx, %r14
140001585: 48 c1 e5 04                 	shlq	$0x4, %rbp
140001589: 48 8b 44 24 40              	movq	0x40(%rsp), %rax
14000158e: 48 8b 14 28                 	movq	(%rax,%rbp), %rdx
140001592: 48 63 74 28 08              	movslq	0x8(%rax,%rbp), %rsi
140001597: 41 89 f0                    	movl	%esi, %r8d
14000159a: 4c 89 f1                    	movq	%r14, %rcx
14000159d: e8 0a 13 00 00              	callq	0x1400028ac <.text+0x18ac>
1400015a2: 49 01 f6                    	addq	%rsi, %r14
1400015a5: 4c 89 f3                    	movq	%r14, %rbx
1400015a8: 48 8b 44 24 30              	movq	0x30(%rsp), %rax
1400015ad: 4c 8b b4 24 d0 00 00 00     	movq	0xd0(%rsp), %r14
1400015b5: e9 b7 fd ff ff              	jmp	0x140001371 <.text+0x371>
1400015ba: 66 0f 1f 44 00 00           	nopw	(%rax,%rax)
1400015c0: 41 57                       	pushq	%r15
1400015c2: 41 56                       	pushq	%r14
1400015c4: 41 55                       	pushq	%r13
1400015c6: 41 54                       	pushq	%r12
1400015c8: 56                          	pushq	%rsi
1400015c9: 57                          	pushq	%rdi
1400015ca: 55                          	pushq	%rbp
1400015cb: 53                          	pushq	%rbx
1400015cc: 48 83 ec 48                 	subq	$0x48, %rsp
1400015d0: 4c 89 cd                    	movq	%r9, %rbp
1400015d3: 4c 8b 94 24 b0 00 00 00     	movq	0xb0(%rsp), %r10
1400015db: 85 d2                       	testl	%edx, %edx
1400015dd: 74 25                       	je	0x140001604 <.text+0x604>
1400015df: 89 d3                       	movl	%edx, %ebx
1400015e1: 49 89 ce                    	movq	%rcx, %r14
1400015e4: 45 31 db                    	xorl	%r11d, %r11d
1400015e7: ba 00 00 00 00              	movl	$0x0, %edx
1400015ec: 85 db                       	testl	%ebx, %ebx
1400015ee: 0f 8e c3 00 00 00           	jle	0x1400016b7 <.text+0x6b7>
1400015f4: 89 d8                       	movl	%ebx, %eax
1400015f6: 83 fb 08                    	cmpl	$0x8, %ebx
1400015f9: 73 14                       	jae	0x14000160f <.text+0x60f>
1400015fb: 31 c9                       	xorl	%ecx, %ecx
1400015fd: 31 d2                       	xorl	%edx, %edx
1400015ff: e9 9c 00 00 00              	jmp	0x1400016a0 <.text+0x6a0>
140001604: 45 31 ff                    	xorl	%r15d, %r15d
140001607: 45 31 db                    	xorl	%r11d, %r11d
14000160a: e9 fd 01 00 00              	jmp	0x14000180c <.text+0x80c>
14000160f: 89 c1                       	movl	%eax, %ecx
140001611: 81 e1 f8 ff ff 7f           	andl	$0x7ffffff8, %ecx       # imm = 0x7FFFFFF8
140001617: 66 0f ef c0                 	pxor	%xmm0, %xmm0
14000161b: 31 d2                       	xorl	%edx, %edx
14000161d: 66 0f 6f 15 2b 1c 00 00     	movdqa	0x1c2b(%rip), %xmm2     # 0x140003250
140001625: 66 0f 6f 1d 33 1c 00 00     	movdqa	0x1c33(%rip), %xmm3     # 0x140003260
14000162d: 66 0f ef c9                 	pxor	%xmm1, %xmm1
140001631: 66 66 66 66 66 66 2e 0f 1f 84 00 00 00 00 00	nopw	%cs:(%rax,%rax)
140001640: 66 41 0f 6e 24 16           	movd	(%r14,%rdx), %xmm4
140001646: 66 41 0f 6e 6c 16 04        	movd	0x4(%r14,%rdx), %xmm5
14000164d: 66 0f 74 e2                 	pcmpeqb	%xmm2, %xmm4
140001651: 66 0f 60 e4                 	punpcklbw	%xmm4, %xmm4    # xmm4 = xmm4[0,0,1,1,2,2,3,3,4,4,5,5,6,6,7,7]
140001655: 66 0f 61 e4                 	punpcklwd	%xmm4, %xmm4    # xmm4 = xmm4[0,0,1,1,2,2,3,3]
140001659: 66 0f db e3                 	pand	%xmm3, %xmm4
14000165d: 66 0f fe c4                 	paddd	%xmm4, %xmm0
140001661: 66 0f 74 ea                 	pcmpeqb	%xmm2, %xmm5
140001665: 66 0f 60 ed                 	punpcklbw	%xmm5, %xmm5    # xmm5 = xmm5[0,0,1,1,2,2,3,3,4,4,5,5,6,6,7,7]
140001669: 66 0f 61 ed                 	punpcklwd	%xmm5, %xmm5    # xmm5 = xmm5[0,0,1,1,2,2,3,3]
14000166d: 66 0f db eb                 	pand	%xmm3, %xmm5
140001671: 66 0f fe cd                 	paddd	%xmm5, %xmm1
140001675: 48 83 c2 08                 	addq	$0x8, %rdx
140001679: 48 39 d1                    	cmpq	%rdx, %rcx
14000167c: 75 c2                       	jne	0x140001640 <.text+0x640>
14000167e: 66 0f fe c8                 	paddd	%xmm0, %xmm1
140001682: 66 0f 70 c1 ee              	pshufd	$0xee, %xmm1, %xmm0     # xmm0 = xmm1[2,3,2,3]
140001687: 66 0f fe c1                 	paddd	%xmm1, %xmm0
14000168b: 66 0f 70 c8 55              	pshufd	$0x55, %xmm0, %xmm1     # xmm1 = xmm0[1,1,1,1]
140001690: 66 0f fe c8                 	paddd	%xmm0, %xmm1
140001694: 66 0f 7e ca                 	movd	%xmm1, %edx
140001698: 48 39 c1                    	cmpq	%rax, %rcx
14000169b: 74 1a                       	je	0x1400016b7 <.text+0x6b7>
14000169d: 0f 1f 00                    	nopl	(%rax)
1400016a0: 45 31 c9                    	xorl	%r9d, %r9d
1400016a3: 41 80 3c 0e 0a              	cmpb	$0xa, (%r14,%rcx)
1400016a8: 41 0f 94 c1                 	sete	%r9b
1400016ac: 44 01 ca                    	addl	%r9d, %edx
1400016af: 48 ff c1                    	incq	%rcx
1400016b2: 48 39 c8                    	cmpq	%rcx, %rax
1400016b5: 75 e9                       	jne	0x1400016a0 <.text+0x6a0>
1400016b7: 8d 4b ff                    	leal	-0x1(%rbx), %ecx
1400016ba: 45 0f b6 0c 0e              	movzbl	(%r14,%rcx), %r9d
1400016bf: 31 c0                       	xorl	%eax, %eax
1400016c1: 41 80 f9 0a                 	cmpb	$0xa, %r9b
1400016c5: 0f 95 c0                    	setne	%al
1400016c8: 01 d0                       	addl	%edx, %eax
1400016ca: 0f 84 39 01 00 00           	je	0x140001809 <.text+0x809>
1400016d0: 44 88 4c 24 27              	movb	%r9b, 0x27(%rsp)
1400016d5: 48 89 4c 24 38              	movq	%rcx, 0x38(%rsp)
1400016da: 4c 89 44 24 30              	movq	%r8, 0x30(%rsp)
1400016df: 89 c1                       	movl	%eax, %ecx
1400016e1: 48 c1 e1 04                 	shlq	$0x4, %rcx
1400016e5: e8 26 11 00 00              	callq	0x140002810 <.text+0x1810>
1400016ea: 49 89 c7                    	movq	%rax, %r15
1400016ed: 31 ff                       	xorl	%edi, %edi
1400016ef: ba 10 00 00 00              	movl	$0x10, %edx
1400016f4: 45 31 db                    	xorl	%r11d, %r11d
1400016f7: 31 f6                       	xorl	%esi, %esi
1400016f9: 39 df                       	cmpl	%ebx, %edi
1400016fb: 89 d8                       	movl	%ebx, %eax
1400016fd: 0f 4f c7                    	cmovgl	%edi, %eax
140001700: 39 f0                       	cmpl	%esi, %eax
140001702: 0f 84 90 00 00 00           	je	0x140001798 <.text+0x798>
140001708: 89 f1                       	movl	%esi, %ecx
14000170a: ff c6                       	incl	%esi
14000170c: 41 80 3c 0e 0a              	cmpb	$0xa, (%r14,%rcx)
140001711: 75 ed                       	jne	0x140001700 <.text+0x700>
140001713: 44 8d 66 ff                 	leal	-0x1(%rsi), %r12d
140001717: 41 39 fc                    	cmpl	%edi, %r12d
14000171a: 48 89 6c 24 40              	movq	%rbp, 0x40(%rsp)
14000171f: 7e 13                       	jle	0x140001734 <.text+0x734>
140001721: 4c 89 5c 24 28              	movq	%r11, 0x28(%rsp)
140001726: 8d 46 fe                    	leal	-0x2(%rsi), %eax
140001729: 41 80 3c 06 0d              	cmpb	$0xd, (%r14,%rax)
14000172e: 44 0f 44 e0                 	cmovel	%eax, %r12d
140001732: eb 05                       	jmp	0x140001739 <.text+0x739>
140001734: 4c 89 5c 24 28              	movq	%r11, 0x28(%rsp)
140001739: 41 29 fc                    	subl	%edi, %r12d
14000173c: 45 8d 6c 24 01              	leal	0x1(%r12), %r13d
140001741: 41 83 fd 11                 	cmpl	$0x11, %r13d
140001745: 44 0f 42 ea                 	cmovbl	%edx, %r13d
140001749: 4c 89 e9                    	movq	%r13, %rcx
14000174c: e8 bf 10 00 00              	callq	0x140002810 <.text+0x1810>
140001751: 48 89 c5                    	movq	%rax, %rbp
140001754: 89 fa                       	movl	%edi, %edx
140001756: 4c 01 f2                    	addq	%r14, %rdx
140001759: 48 89 c1                    	movq	%rax, %rcx
14000175c: 4d 89 e0                    	movq	%r12, %r8
14000175f: e8 48 11 00 00              	callq	0x1400028ac <.text+0x18ac>
140001764: ba 10 00 00 00              	movl	$0x10, %edx
140001769: 42 c6 44 25 00 00           	movb	$0x0, (%rbp,%r12)
14000176f: 4c 8b 5c 24 28              	movq	0x28(%rsp), %r11
140001774: 44 89 d8                    	movl	%r11d, %eax
140001777: 48 c1 e0 04                 	shlq	$0x4, %rax
14000177b: 49 89 2c 07                 	movq	%rbp, (%r15,%rax)
14000177f: 45 89 64 07 08              	movl	%r12d, 0x8(%r15,%rax)
140001784: 45 89 6c 07 0c              	movl	%r13d, 0xc(%r15,%rax)
140001789: 41 ff c3                    	incl	%r11d
14000178c: 89 f7                       	movl	%esi, %edi
14000178e: 48 8b 6c 24 40              	movq	0x40(%rsp), %rbp
140001793: e9 61 ff ff ff              	jmp	0x1400016f9 <.text+0x6f9>
140001798: 39 df                       	cmpl	%ebx, %edi
14000179a: 7d 5e                       	jge	0x1400017fa <.text+0x7fa>
14000179c: 80 7c 24 27 0d              	cmpb	$0xd, 0x27(%rsp)
1400017a1: 0f 44 5c 24 38              	cmovel	0x38(%rsp), %ebx
1400017a6: 29 fb                       	subl	%edi, %ebx
1400017a8: 8d 43 01                    	leal	0x1(%rbx), %eax
1400017ab: 83 f8 11                    	cmpl	$0x11, %eax
1400017ae: 41 bc 10 00 00 00           	movl	$0x10, %r12d
1400017b4: 44 0f 43 e0                 	cmovael	%eax, %r12d
1400017b8: 4c 89 e1                    	movq	%r12, %rcx
1400017bb: 4c 89 de                    	movq	%r11, %rsi
1400017be: e8 4d 10 00 00              	callq	0x140002810 <.text+0x1810>
1400017c3: 49 89 c5                    	movq	%rax, %r13
1400017c6: 89 f8                       	movl	%edi, %eax
1400017c8: 49 01 c6                    	addq	%rax, %r14
1400017cb: 4c 89 e9                    	movq	%r13, %rcx
1400017ce: 4c 89 f2                    	movq	%r14, %rdx
1400017d1: 49 89 d8                    	movq	%rbx, %r8
1400017d4: e8 d3 10 00 00              	callq	0x1400028ac <.text+0x18ac>
1400017d9: 49 89 f3                    	movq	%rsi, %r11
1400017dc: 41 c6 44 1d 00 00           	movb	$0x0, (%r13,%rbx)
1400017e2: 44 89 d8                    	movl	%r11d, %eax
1400017e5: 48 c1 e0 04                 	shlq	$0x4, %rax
1400017e9: 4d 89 2c 07                 	movq	%r13, (%r15,%rax)
1400017ed: 41 89 5c 07 08              	movl	%ebx, 0x8(%r15,%rax)
1400017f2: 45 89 64 07 0c              	movl	%r12d, 0xc(%r15,%rax)
1400017f7: 41 ff c3                    	incl	%r11d
1400017fa: 4c 8b 44 24 30              	movq	0x30(%rsp), %r8
1400017ff: 4c 8b 94 24 b0 00 00 00     	movq	0xb0(%rsp), %r10
140001807: eb 03                       	jmp	0x14000180c <.text+0x80c>
140001809: 45 31 ff                    	xorl	%r15d, %r15d
14000180c: 4d 89 38                    	movq	%r15, (%r8)
14000180f: 44 89 5d 00                 	movl	%r11d, (%rbp)
140001813: 45 89 1a                    	movl	%r11d, (%r10)
140001816: 48 83 c4 48                 	addq	$0x48, %rsp
14000181a: 5b                          	popq	%rbx
14000181b: 5d                          	popq	%rbp
14000181c: 5f                          	popq	%rdi
14000181d: 5e                          	popq	%rsi
14000181e: 41 5c                       	popq	%r12
140001820: 41 5d                       	popq	%r13
140001822: 41 5e                       	popq	%r14
140001824: 41 5f                       	popq	%r15
140001826: c3                          	retq
140001827: 66 0f 1f 84 00 00 00 00 00  	nopw	(%rax,%rax)
140001830: 49 b9 25 23 22 84 e4 9c f2 cb       	movabsq	$-0x340d631b7bdddcdb, %r9 # imm = 0xCBF29CE484222325
14000183a: 44 0f b6 01                 	movzbl	(%rcx), %r8d
14000183e: 45 84 c0                    	testb	%r8b, %r8b
140001841: 74 28                       	je	0x14000186b <.text+0x86b>
140001843: 48 ff c1                    	incq	%rcx
140001846: 48 ba b3 01 00 00 00 01 00 00       	movabsq	$0x100000001b3, %rdx # imm = 0x100000001B3
140001850: 41 0f b6 c0                 	movzbl	%r8b, %eax
140001854: 4c 31 c8                    	xorq	%r9, %rax
140001857: 48 0f af c2                 	imulq	%rdx, %rax
14000185b: 44 0f b6 01                 	movzbl	(%rcx), %r8d
14000185f: 48 ff c1                    	incq	%rcx
140001862: 49 89 c1                    	movq	%rax, %r9
140001865: 45 84 c0                    	testb	%r8b, %r8b
140001868: 75 e6                       	jne	0x140001850 <.text+0x850>
14000186a: c3                          	retq
14000186b: 4c 89 c8                    	movq	%r9, %rax
14000186e: c3                          	retq
14000186f: 90                          	nop
140001870: 41 57                       	pushq	%r15
140001872: 41 56                       	pushq	%r14
140001874: 41 55                       	pushq	%r13
140001876: 41 54                       	pushq	%r12
140001878: 56                          	pushq	%rsi
140001879: 57                          	pushq	%rdi
14000187a: 55                          	pushq	%rbp
14000187b: 53                          	pushq	%rbx
14000187c: 48 83 ec 28                 	subq	$0x28, %rsp
140001880: 8b 84 24 90 00 00 00        	movl	0x90(%rsp), %eax
140001887: 85 c0                       	testl	%eax, %eax
140001889: 7e 52                       	jle	0x1400018dd <.text+0x8dd>
14000188b: 44 89 ce                    	movl	%r9d, %esi
14000188e: 89 d7                       	movl	%edx, %edi
140001890: 48 89 cb                    	movq	%rcx, %rbx
140001893: 4c 63 e2                    	movslq	%edx, %r12
140001896: 41 89 c5                    	movl	%eax, %r13d
140001899: 45 31 f6                    	xorl	%r14d, %r14d
14000189c: 4c 8d 3d e5 19 00 00        	leaq	0x19e5(%rip), %r15      # 0x140003288
1400018a3: 31 ed                       	xorl	%ebp, %ebp
1400018a5: eb 2a                       	jmp	0x1400018d1 <.text+0x8d1>
1400018a7: 66 0f 1f 84 00 00 00 00 00  	nopw	(%rax,%rax)
1400018b0: 4c 89 f9                    	movq	%r15, %rcx
1400018b3: 44 89 f2                    	movl	%r14d, %edx
1400018b6: 41 89 f8                    	movl	%edi, %r8d
1400018b9: e8 62 02 00 00              	callq	0x140001b20 <.text+0xb20>
1400018be: 31 c0                       	xorl	%eax, %eax
1400018c0: 31 c9                       	xorl	%ecx, %ecx
1400018c2: 39 f0                       	cmpl	%esi, %eax
1400018c4: 0f 94 c1                    	sete	%cl
1400018c7: 01 cd                       	addl	%ecx, %ebp
1400018c9: 49 ff c6                    	incq	%r14
1400018cc: 4d 39 f5                    	cmpq	%r14, %r13
1400018cf: 74 0e                       	je	0x1400018df <.text+0x8df>
1400018d1: 4d 39 e6                    	cmpq	%r12, %r14
1400018d4: 7d da                       	jge	0x1400018b0 <.text+0x8b0>
1400018d6: 42 0f b6 04 33              	movzbl	(%rbx,%r14), %eax
1400018db: eb e3                       	jmp	0x1400018c0 <.text+0x8c0>
1400018dd: 31 ed                       	xorl	%ebp, %ebp
1400018df: 89 e8                       	movl	%ebp, %eax
1400018e1: 48 83 c4 28                 	addq	$0x28, %rsp
1400018e5: 5b                          	popq	%rbx
1400018e6: 5d                          	popq	%rbp
1400018e7: 5f                          	popq	%rdi
1400018e8: 5e                          	popq	%rsi
1400018e9: 41 5c                       	popq	%r12
1400018eb: 41 5d                       	popq	%r13
1400018ed: 41 5e                       	popq	%r14
1400018ef: 41 5f                       	popq	%r15
1400018f1: c3                          	retq
1400018f2: 66 66 66 66 66 2e 0f 1f 84 00 00 00 00 00   	nopw	%cs:(%rax,%rax)
140001900: 41 57                       	pushq	%r15
140001902: 41 56                       	pushq	%r14
140001904: 41 54                       	pushq	%r12
140001906: 56                          	pushq	%rsi
140001907: 57                          	pushq	%rdi
140001908: 53                          	pushq	%rbx
140001909: 48 83 ec 48                 	subq	$0x48, %rsp
14000190d: 0f 29 7c 24 30              	movaps	%xmm7, 0x30(%rsp)
140001912: 0f 29 74 24 20              	movaps	%xmm6, 0x20(%rsp)
140001917: b9 45 0d 03 00              	movl	$0x30d45, %ecx          # imm = 0x30D45
14000191c: e8 ef 0e 00 00              	callq	0x140002810 <.text+0x1810>
140001921: 48 89 c6                    	movq	%rax, %rsi
140001924: 31 c0                       	xorl	%eax, %eax
140001926: 48 b9 64 20 65 20 66 20 67 20       	movabsq	$0x2067206620652064, %rcx # imm = 0x2067206620652064
140001930: 48 ba 61 20 62 20 63 20 64 20       	movabsq	$0x2064206320622061, %rdx # imm = 0x2064206320622061
14000193a: 66 0f 1f 44 00 00           	nopw	(%rax,%rax)
140001940: 48 89 4c 06 06              	movq	%rcx, 0x6(%rsi,%rax)
140001945: 48 89 14 06                 	movq	%rdx, (%rsi,%rax)
140001949: 48 89 54 06 0e              	movq	%rdx, 0xe(%rsi,%rax)
14000194e: 48 89 4c 06 14              	movq	%rcx, 0x14(%rsi,%rax)
140001953: 48 89 54 06 1c              	movq	%rdx, 0x1c(%rsi,%rax)
140001958: 48 89 4c 06 22              	movq	%rcx, 0x22(%rsi,%rax)
14000195d: 48 83 c0 2a                 	addq	$0x2a, %rax
140001961: 48 3d 44 0d 03 00           	cmpq	$0x30d44, %rax          # imm = 0x30D44
140001967: 75 d7                       	jne	0x140001940 <.text+0x940>
140001969: c6 86 44 0d 03 00 00        	movb	$0x0, 0x30d44(%rsi)
140001970: 45 31 ff                    	xorl	%r15d, %r15d
140001973: 66 0f 6f 35 f5 18 00 00     	movdqa	0x18f5(%rip), %xmm6     # 0x140003270
14000197b: 66 0f 6f 3d dd 18 00 00     	movdqa	0x18dd(%rip), %xmm7     # 0x140003260
140001983: 31 ff                       	xorl	%edi, %edi
140001985: 45 31 e4                    	xorl	%r12d, %r12d
140001988: eb 20                       	jmp	0x1400019aa <.text+0x9aa>
14000198a: 66 0f 1f 44 00 00           	nopw	(%rax,%rax)
140001990: 01 c7                       	addl	%eax, %edi
140001992: e8 f9 01 00 00              	callq	0x140001b90 <.text+0xb90>
140001997: 49 29 dc                    	subq	%rbx, %r12
14000199a: 49 01 c4                    	addq	%rax, %r12
14000199d: 41 ff c7                    	incl	%r15d
1400019a0: 41 83 ff 0a                 	cmpl	$0xa, %r15d
1400019a4: 0f 84 00 01 00 00           	je	0x140001aaa <.text+0xaaa>
1400019aa: e8 e1 01 00 00              	callq	0x140001b90 <.text+0xb90>
1400019af: 49 89 c6                    	movq	%rax, %r14
1400019b2: e8 d9 01 00 00              	callq	0x140001b90 <.text+0xb90>
1400019b7: 48 89 c3                    	movq	%rax, %rbx
1400019ba: b8 00 00 00 00              	movl	$0x0, %eax
1400019bf: 4d 85 f6                    	testq	%r14, %r14
1400019c2: 7e cc                       	jle	0x140001990 <.text+0x990>
1400019c4: 66 0f ef c9                 	pxor	%xmm1, %xmm1
1400019c8: b8 0c 00 00 00              	movl	$0xc, %eax
1400019cd: 66 0f ef c0                 	pxor	%xmm0, %xmm0
1400019d1: 66 66 66 66 66 66 2e 0f 1f 84 00 00 00 00 00	nopw	%cs:(%rax,%rax)
1400019e0: 66 0f 6e 5c 06 f4           	movd	-0xc(%rsi,%rax), %xmm3
1400019e6: 66 0f 6e 54 06 f8           	movd	-0x8(%rsi,%rax), %xmm2
1400019ec: 66 0f 74 de                 	pcmpeqb	%xmm6, %xmm3
1400019f0: 66 0f 60 db                 	punpcklbw	%xmm3, %xmm3    # xmm3 = xmm3[0,0,1,1,2,2,3,3,4,4,5,5,6,6,7,7]
1400019f4: 66 0f 61 db                 	punpcklwd	%xmm3, %xmm3    # xmm3 = xmm3[0,0,1,1,2,2,3,3]
1400019f8: 66 0f db df                 	pand	%xmm7, %xmm3
1400019fc: 66 0f fe d9                 	paddd	%xmm1, %xmm3
140001a00: 66 0f 74 d6                 	pcmpeqb	%xmm6, %xmm2
140001a04: 66 0f 60 d2                 	punpcklbw	%xmm2, %xmm2    # xmm2 = xmm2[0,0,1,1,2,2,3,3,4,4,5,5,6,6,7,7]
140001a08: 66 0f 61 d2                 	punpcklwd	%xmm2, %xmm2    # xmm2 = xmm2[0,0,1,1,2,2,3,3]
140001a0c: 66 0f db d7                 	pand	%xmm7, %xmm2
140001a10: 66 0f fe d0                 	paddd	%xmm0, %xmm2
140001a14: 66 0f 6e 4c 06 fc           	movd	-0x4(%rsi,%rax), %xmm1
140001a1a: 66 0f 6e 04 06              	movd	(%rsi,%rax), %xmm0
140001a1f: 66 0f 74 ce                 	pcmpeqb	%xmm6, %xmm1
140001a23: 66 0f 60 c9                 	punpcklbw	%xmm1, %xmm1    # xmm1 = xmm1[0,0,1,1,2,2,3,3,4,4,5,5,6,6,7,7]
140001a27: 66 0f 61 c9                 	punpcklwd	%xmm1, %xmm1    # xmm1 = xmm1[0,0,1,1,2,2,3,3]
140001a2b: 66 0f db cf                 	pand	%xmm7, %xmm1
140001a2f: 66 0f fe cb                 	paddd	%xmm3, %xmm1
140001a33: 66 0f 74 c6                 	pcmpeqb	%xmm6, %xmm0
140001a37: 66 0f 60 c0                 	punpcklbw	%xmm0, %xmm0    # xmm0 = xmm0[0,0,1,1,2,2,3,3,4,4,5,5,6,6,7,7]
140001a3b: 66 0f 61 c0                 	punpcklwd	%xmm0, %xmm0    # xmm0 = xmm0[0,0,1,1,2,2,3,3]
140001a3f: 66 0f db c7                 	pand	%xmm7, %xmm0
140001a43: 66 0f fe c2                 	paddd	%xmm2, %xmm0
140001a47: 48 83 c0 10                 	addq	$0x10, %rax
140001a4b: 48 3d 4c 0d 03 00           	cmpq	$0x30d4c, %rax          # imm = 0x30D4C
140001a51: 75 8d                       	jne	0x1400019e0 <.text+0x9e0>
140001a53: 66 0f fe c1                 	paddd	%xmm1, %xmm0
140001a57: 66 0f 70 c8 ee              	pshufd	$0xee, %xmm0, %xmm1     # xmm1 = xmm0[2,3,2,3]
140001a5c: 66 0f fe c8                 	paddd	%xmm0, %xmm1
140001a60: 66 0f 70 c1 55              	pshufd	$0x55, %xmm1, %xmm0     # xmm0 = xmm1[1,1,1,1]
140001a65: 66 0f fe c1                 	paddd	%xmm1, %xmm0
140001a69: 31 c0                       	xorl	%eax, %eax
140001a6b: 80 be 40 0d 03 00 20        	cmpb	$0x20, 0x30d40(%rsi)
140001a72: 0f 94 c0                    	sete	%al
140001a75: 31 c9                       	xorl	%ecx, %ecx
140001a77: 80 be 41 0d 03 00 20        	cmpb	$0x20, 0x30d41(%rsi)
140001a7e: 0f 94 c1                    	sete	%cl
140001a81: 01 c1                       	addl	%eax, %ecx
140001a83: 31 d2                       	xorl	%edx, %edx
140001a85: 80 be 42 0d 03 00 20        	cmpb	$0x20, 0x30d42(%rsi)
140001a8c: 0f 94 c2                    	sete	%dl
140001a8f: 01 ca                       	addl	%ecx, %edx
140001a91: 31 c0                       	xorl	%eax, %eax
140001a93: 80 be 43 0d 03 00 20        	cmpb	$0x20, 0x30d43(%rsi)
140001a9a: 66 0f 7e c1                 	movd	%xmm0, %ecx
140001a9e: 0f 94 c0                    	sete	%al
140001aa1: 01 d0                       	addl	%edx, %eax
140001aa3: 01 c8                       	addl	%ecx, %eax
140001aa5: e9 e6 fe ff ff              	jmp	0x140001990 <.text+0x990>
140001aaa: 0f 57 f6                    	xorps	%xmm6, %xmm6
140001aad: f2 49 0f 2a f4              	cvtsi2sd	%r12, %xmm6
140001ab2: f2 0f 5e 35 c6 17 00 00     	divsd	0x17c6(%rip), %xmm6     # 0x140003280
140001aba: 48 8d 0d 0c 18 00 00        	leaq	0x180c(%rip), %rcx      # 0x1400032cd
140001ac1: 89 fa                       	movl	%edi, %edx
140001ac3: e8 58 00 00 00              	callq	0x140001b20 <.text+0xb20>
140001ac8: 48 8d 0d 0a 18 00 00        	leaq	0x180a(%rip), %rcx      # 0x1400032d9
140001acf: 66 0f 28 ce                 	movapd	%xmm6, %xmm1
140001ad3: 66 48 0f 7e f2              	movq	%xmm6, %rdx
140001ad8: 41 b8 0a 00 00 00           	movl	$0xa, %r8d
140001ade: e8 3d 00 00 00              	callq	0x140001b20 <.text+0xb20>
140001ae3: 48 89 f1                    	movq	%rsi, %rcx
140001ae6: e8 2b 0d 00 00              	callq	0x140002816 <.text+0x1816>
140001aeb: 31 c0                       	xorl	%eax, %eax
140001aed: 0f 28 74 24 20              	movaps	0x20(%rsp), %xmm6
140001af2: 0f 28 7c 24 30              	movaps	0x30(%rsp), %xmm7
140001af7: 48 83 c4 48                 	addq	$0x48, %rsp
140001afb: 5b                          	popq	%rbx
140001afc: 5f                          	popq	%rdi
140001afd: 5e                          	popq	%rsi
140001afe: 41 5c                       	popq	%r12
140001b00: 41 5e                       	popq	%r14
140001b02: 41 5f                       	popq	%r15
140001b04: c3                          	retq
140001b05: cc                          	int3
140001b06: cc                          	int3
140001b07: cc                          	int3
140001b08: cc                          	int3
140001b09: cc                          	int3
140001b0a: cc                          	int3
140001b0b: cc                          	int3
140001b0c: cc                          	int3
140001b0d: cc                          	int3
140001b0e: cc                          	int3
140001b0f: cc                          	int3
140001b10: 48 8d 05 79 b1 00 00        	leaq	0xb179(%rip), %rax      # 0x14000cc90
140001b17: c3                          	retq
140001b18: cc                          	int3
140001b19: cc                          	int3
140001b1a: cc                          	int3
140001b1b: cc                          	int3
140001b1c: cc                          	int3
140001b1d: cc                          	int3
140001b1e: cc                          	int3
140001b1f: cc                          	int3
140001b20: 48 89 4c 24 08              	movq	%rcx, 0x8(%rsp)
140001b25: 48 89 54 24 10              	movq	%rdx, 0x10(%rsp)
140001b2a: 4c 89 44 24 18              	movq	%r8, 0x18(%rsp)
140001b2f: 4c 89 4c 24 20              	movq	%r9, 0x20(%rsp)
140001b34: 53                          	pushq	%rbx
140001b35: 56                          	pushq	%rsi
140001b36: 57                          	pushq	%rdi
140001b37: 48 83 ec 30                 	subq	$0x30, %rsp
140001b3b: 48 8b f9                    	movq	%rcx, %rdi
140001b3e: 48 8d 74 24 58              	leaq	0x58(%rsp), %rsi
140001b43: b9 01 00 00 00              	movl	$0x1, %ecx
140001b48: ff 15 52 16 00 00           	callq	*0x1652(%rip)           # 0x1400031a0
140001b4e: 48 8b d8                    	movq	%rax, %rbx
140001b51: e8 ba ff ff ff              	callq	0x140001b10 <.text+0xb10>
140001b56: 45 33 c9                    	xorl	%r9d, %r9d
140001b59: 48 89 74 24 20              	movq	%rsi, 0x20(%rsp)
140001b5e: 4c 8b c7                    	movq	%rdi, %r8
140001b61: 48 8b d3                    	movq	%rbx, %rdx
140001b64: 48 8b 08                    	movq	(%rax), %rcx
140001b67: ff 15 3b 16 00 00           	callq	*0x163b(%rip)           # 0x1400031a8
140001b6d: 48 83 c4 30                 	addq	$0x30, %rsp
140001b71: 5f                          	popq	%rdi
140001b72: 5e                          	popq	%rsi
140001b73: 5b                          	popq	%rbx
140001b74: c3                          	retq
140001b75: cc                          	int3
140001b76: cc                          	int3
140001b77: cc                          	int3
140001b78: cc                          	int3
140001b79: cc                          	int3
140001b7a: cc                          	int3
140001b7b: cc                          	int3
140001b7c: cc                          	int3
140001b7d: cc                          	int3
140001b7e: cc                          	int3
140001b7f: cc                          	int3
140001b80: 48 8d 05 01 b1 00 00        	leaq	0xb101(%rip), %rax      # 0x14000cc88
140001b87: c3                          	retq
140001b88: cc                          	int3
140001b89: cc                          	int3
140001b8a: cc                          	int3
140001b8b: cc                          	int3
140001b8c: cc                          	int3
140001b8d: cc                          	int3
140001b8e: cc                          	int3
140001b8f: cc                          	int3
140001b90: 48 83 ec 28                 	subq	$0x28, %rsp
140001b94: 48 83 3d dc a5 00 00 00     	cmpq	$0x0, 0xa5dc(%rip)      # 0x14000c178
140001b9c: 75 0d                       	jne	0x140001bab <.text+0xbab>
140001b9e: 48 8d 0d d3 a5 00 00        	leaq	0xa5d3(%rip), %rcx      # 0x14000c178
140001ba5: ff 15 c5 14 00 00           	callq	*0x14c5(%rip)           # 0x140003070
140001bab: 48 8d 4c 24 30              	leaq	0x30(%rsp), %rcx
140001bb0: ff 15 c2 14 00 00           	callq	*0x14c2(%rip)           # 0x140003078
140001bb6: 0f 57 c9                    	xorps	%xmm1, %xmm1
140001bb9: 0f 57 c0                    	xorps	%xmm0, %xmm0
140001bbc: f2 48 0f 2a 4c 24 30        	cvtsi2sdq	0x30(%rsp), %xmm1
140001bc3: f2 48 0f 2a 05 ac a5 00 00  	cvtsi2sdq	0xa5ac(%rip), %xmm0 # 0x14000c178
140001bcc: f2 0f 59 0d 2c 17 00 00     	mulsd	0x172c(%rip), %xmm1     # 0x140003300
140001bd4: f2 0f 5e c8                 	divsd	%xmm0, %xmm1
140001bd8: f2 48 0f 2c c1              	cvttsd2si	%xmm1, %rax
140001bdd: 48 83 c4 28                 	addq	$0x28, %rsp
140001be1: c3                          	retq
140001be2: cc                          	int3
140001be3: cc                          	int3
140001be4: 40 53                       	pushq	%rbx
140001be6: 48 83 ec 20                 	subq	$0x20, %rsp
140001bea: b9 01 00 00 00              	movl	$0x1, %ecx
140001bef: e8 34 0c 00 00              	callq	0x140002828 <.text+0x1828>
140001bf4: e8 6f 07 00 00              	callq	0x140002368 <.text+0x1368>
140001bf9: 8b c8                       	movl	%eax, %ecx
140001bfb: e8 58 0c 00 00              	callq	0x140002858 <.text+0x1858>
140001c00: e8 57 07 00 00              	callq	0x14000235c <.text+0x135c>
140001c05: 8b d8                       	movl	%eax, %ebx
140001c07: e8 7c 0c 00 00              	callq	0x140002888 <.text+0x1888>
140001c0c: b9 01 00 00 00              	movl	$0x1, %ecx
140001c11: 89 18                       	movl	%ebx, (%rax)
140001c13: e8 d0 04 00 00              	callq	0x1400020e8 <.text+0x10e8>
140001c18: 84 c0                       	testb	%al, %al
140001c1a: 74 73                       	je	0x140001c8f <.text+0xc8f>
140001c1c: e8 b7 09 00 00              	callq	0x1400025d8 <.text+0x15d8>
140001c21: 48 8d 0d ec 09 00 00        	leaq	0x9ec(%rip), %rcx       # 0x140002614 <.text+0x1614>
140001c28: e8 6b 06 00 00              	callq	0x140002298 <.text+0x1298>
140001c2d: e8 2e 07 00 00              	callq	0x140002360 <.text+0x1360>
140001c32: 8b c8                       	movl	%eax, %ecx
140001c34: e8 fb 0b 00 00              	callq	0x140002834 <.text+0x1834>
140001c39: 85 c0                       	testl	%eax, %eax
140001c3b: 75 52                       	jne	0x140001c8f <.text+0xc8f>
140001c3d: e8 2e 07 00 00              	callq	0x140002370 <.text+0x1370>
140001c42: e8 5d 07 00 00              	callq	0x1400023a4 <.text+0x13a4>
140001c47: 85 c0                       	testl	%eax, %eax
140001c49: 74 0c                       	je	0x140001c57 <.text+0xc57>
140001c4b: 48 8d 0d 0a 07 00 00        	leaq	0x70a(%rip), %rcx       # 0x14000235c <.text+0x135c>
140001c52: e8 d7 0b 00 00              	callq	0x14000282e <.text+0x182e>
140001c57: e8 28 07 00 00              	callq	0x140002384 <.text+0x1384>
140001c5c: e8 23 07 00 00              	callq	0x140002384 <.text+0x1384>
140001c61: e8 f6 06 00 00              	callq	0x14000235c <.text+0x135c>
140001c66: 8b c8                       	movl	%eax, %ecx
140001c68: e8 0f 0c 00 00              	callq	0x14000287c <.text+0x187c>
140001c6d: e8 0e 07 00 00              	callq	0x140002380 <.text+0x1380>
140001c72: 84 c0                       	testb	%al, %al
140001c74: 74 05                       	je	0x140001c7b <.text+0xc7b>
140001c76: e8 bf 0b 00 00              	callq	0x14000283a <.text+0x183a>
140001c7b: e8 dc 06 00 00              	callq	0x14000235c <.text+0x135c>
140001c80: e8 8b 08 00 00              	callq	0x140002510 <.text+0x1510>
140001c85: 85 c0                       	testl	%eax, %eax
140001c87: 75 06                       	jne	0x140001c8f <.text+0xc8f>
140001c89: 48 83 c4 20                 	addq	$0x20, %rsp
140001c8d: 5b                          	popq	%rbx
140001c8e: c3                          	retq
140001c8f: b9 07 00 00 00              	movl	$0x7, %ecx
140001c94: e8 2f 07 00 00              	callq	0x1400023c8 <.text+0x13c8>
140001c99: cc                          	int3
140001c9a: cc                          	int3
140001c9b: cc                          	int3
140001c9c: 48 83 ec 28                 	subq	$0x28, %rsp
140001ca0: e8 e3 06 00 00              	callq	0x140002388 <.text+0x1388>
140001ca5: 33 c0                       	xorl	%eax, %eax
140001ca7: 48 83 c4 28                 	addq	$0x28, %rsp
140001cab: c3                          	retq
140001cac: 48 83 ec 28                 	subq	$0x28, %rsp
140001cb0: e8 b7 08 00 00              	callq	0x14000256c <.text+0x156c>
140001cb5: e8 a2 06 00 00              	callq	0x14000235c <.text+0x135c>
140001cba: 8b c8                       	movl	%eax, %ecx
140001cbc: 48 83 c4 28                 	addq	$0x28, %rsp
140001cc0: e9 bd 0b 00 00              	jmp	0x140002882 <.text+0x1882>
140001cc5: cc                          	int3
140001cc6: cc                          	int3
140001cc7: cc                          	int3
140001cc8: 48 89 5c 24 08              	movq	%rbx, 0x8(%rsp)
140001ccd: 48 89 74 24 10              	movq	%rsi, 0x10(%rsp)
140001cd2: 57                          	pushq	%rdi
140001cd3: 48 83 ec 30                 	subq	$0x30, %rsp
140001cd7: b9 01 00 00 00              	movl	$0x1, %ecx
140001cdc: e8 cb 03 00 00              	callq	0x1400020ac <.text+0x10ac>
140001ce1: 84 c0                       	testb	%al, %al
140001ce3: 0f 84 36 01 00 00           	je	0x140001e1f <.text+0xe1f>
140001ce9: 40 32 f6                    	xorb	%sil, %sil
140001cec: 40 88 74 24 20              	movb	%sil, 0x20(%rsp)
140001cf1: e8 7a 03 00 00              	callq	0x140002070 <.text+0x1070>
140001cf6: 8a d8                       	movb	%al, %bl
140001cf8: 8b 0d 22 af 00 00           	movl	0xaf22(%rip), %ecx      # 0x14000cc20
140001cfe: 83 f9 01                    	cmpl	$0x1, %ecx
140001d01: 0f 84 23 01 00 00           	je	0x140001e2a <.text+0xe2a>
140001d07: 85 c9                       	testl	%ecx, %ecx
140001d09: 75 4a                       	jne	0x140001d55 <.text+0xd55>
140001d0b: c7 05 0b af 00 00 01 00 00 00       	movl	$0x1, 0xaf0b(%rip) # 0x14000cc20
140001d15: 48 8d 15 0c 15 00 00        	leaq	0x150c(%rip), %rdx      # 0x140003228
140001d1c: 48 8d 0d ed 14 00 00        	leaq	0x14ed(%rip), %rcx      # 0x140003210
140001d23: e8 24 0b 00 00              	callq	0x14000284c <.text+0x184c>
140001d28: 85 c0                       	testl	%eax, %eax
140001d2a: 74 0a                       	je	0x140001d36 <.text+0xd36>
140001d2c: b8 ff 00 00 00              	movl	$0xff, %eax
140001d31: e9 d9 00 00 00              	jmp	0x140001e0f <.text+0xe0f>
140001d36: 48 8d 15 cb 14 00 00        	leaq	0x14cb(%rip), %rdx      # 0x140003208
140001d3d: 48 8d 0d b4 14 00 00        	leaq	0x14b4(%rip), %rcx      # 0x1400031f8
140001d44: e8 fd 0a 00 00              	callq	0x140002846 <.text+0x1846>
140001d49: c7 05 cd ae 00 00 02 00 00 00       	movl	$0x2, 0xaecd(%rip) # 0x14000cc20
140001d53: eb 08                       	jmp	0x140001d5d <.text+0xd5d>
140001d55: 40 b6 01                    	movb	$0x1, %sil
140001d58: 40 88 74 24 20              	movb	%sil, 0x20(%rsp)
140001d5d: 8a cb                       	movb	%bl, %cl
140001d5f: e8 a8 04 00 00              	callq	0x14000220c <.text+0x120c>
140001d64: e8 47 06 00 00              	callq	0x1400023b0 <.text+0x13b0>
140001d69: 48 8b d8                    	movq	%rax, %rbx
140001d6c: 48 83 38 00                 	cmpq	$0x0, (%rax)
140001d70: 74 1e                       	je	0x140001d90 <.text+0xd90>
140001d72: 48 8b c8                    	movq	%rax, %rcx
140001d75: e8 fa 03 00 00              	callq	0x140002174 <.text+0x1174>
140001d7a: 84 c0                       	testb	%al, %al
140001d7c: 74 12                       	je	0x140001d90 <.text+0xd90>
140001d7e: 45 33 c0                    	xorl	%r8d, %r8d
140001d81: 41 8d 50 02                 	leal	0x2(%r8), %edx
140001d85: 33 c9                       	xorl	%ecx, %ecx
140001d87: 48 8b 03                    	movq	(%rbx), %rax
140001d8a: ff 15 40 14 00 00           	callq	*0x1440(%rip)           # 0x1400031d0
140001d90: e8 23 06 00 00              	callq	0x1400023b8 <.text+0x13b8>
140001d95: 48 8b d8                    	movq	%rax, %rbx
140001d98: 48 83 38 00                 	cmpq	$0x0, (%rax)
140001d9c: 74 14                       	je	0x140001db2 <.text+0xdb2>
140001d9e: 48 8b c8                    	movq	%rax, %rcx
140001da1: e8 ce 03 00 00              	callq	0x140002174 <.text+0x1174>
140001da6: 84 c0                       	testb	%al, %al
140001da8: 74 08                       	je	0x140001db2 <.text+0xdb2>
140001daa: 48 8b 0b                    	movq	(%rbx), %rcx
140001dad: e8 c4 0a 00 00              	callq	0x140002876 <.text+0x1876>
140001db2: e8 89 0a 00 00              	callq	0x140002840 <.text+0x1840>
140001db7: 48 8b f8                    	movq	%rax, %rdi
140001dba: e8 a5 0a 00 00              	callq	0x140002864 <.text+0x1864>
140001dbf: 48 8b 18                    	movq	(%rax), %rbx
140001dc2: e8 97 0a 00 00              	callq	0x14000285e <.text+0x185e>
140001dc7: 4c 8b c7                    	movq	%rdi, %r8
140001dca: 48 8b d3                    	movq	%rbx, %rdx
140001dcd: 8b 08                       	movl	(%rax), %ecx
140001dcf: e8 2c fb ff ff              	callq	0x140001900 <.text+0x900>
140001dd4: 8b d8                       	movl	%eax, %ebx
140001dd6: e8 3d 07 00 00              	callq	0x140002518 <.text+0x1518>
140001ddb: 84 c0                       	testb	%al, %al
140001ddd: 74 55                       	je	0x140001e34 <.text+0xe34>
140001ddf: 40 84 f6                    	testb	%sil, %sil
140001de2: 75 05                       	jne	0x140001de9 <.text+0xde9>
140001de4: e8 81 0a 00 00              	callq	0x14000286a <.text+0x186a>
140001de9: 33 d2                       	xorl	%edx, %edx
140001deb: b1 01                       	movb	$0x1, %cl
140001ded: e8 3e 04 00 00              	callq	0x140002230 <.text+0x1230>
140001df2: 8b c3                       	movl	%ebx, %eax
140001df4: eb 19                       	jmp	0x140001e0f <.text+0xe0f>
140001df6: 8b d8                       	movl	%eax, %ebx
140001df8: e8 1b 07 00 00              	callq	0x140002518 <.text+0x1518>
140001dfd: 84 c0                       	testb	%al, %al
140001dff: 74 3b                       	je	0x140001e3c <.text+0xe3c>
140001e01: 80 7c 24 20 00              	cmpb	$0x0, 0x20(%rsp)
140001e06: 75 05                       	jne	0x140001e0d <.text+0xe0d>
140001e08: e8 63 0a 00 00              	callq	0x140002870 <.text+0x1870>
140001e0d: 8b c3                       	movl	%ebx, %eax
140001e0f: 48 8b 5c 24 40              	movq	0x40(%rsp), %rbx
140001e14: 48 8b 74 24 48              	movq	0x48(%rsp), %rsi
140001e19: 48 83 c4 30                 	addq	$0x30, %rsp
140001e1d: 5f                          	popq	%rdi
140001e1e: c3                          	retq
140001e1f: b9 07 00 00 00              	movl	$0x7, %ecx
140001e24: e8 9f 05 00 00              	callq	0x1400023c8 <.text+0x13c8>
140001e29: 90                          	nop
140001e2a: b9 07 00 00 00              	movl	$0x7, %ecx
140001e2f: e8 94 05 00 00              	callq	0x1400023c8 <.text+0x13c8>
140001e34: 8b cb                       	movl	%ebx, %ecx
140001e36: e8 e1 09 00 00              	callq	0x14000281c <.text+0x181c>
140001e3b: 90                          	nop
140001e3c: 8b cb                       	movl	%ebx, %ecx
140001e3e: e8 0f 0a 00 00              	callq	0x140002852 <.text+0x1852>
140001e43: 90                          	nop
140001e44: 48 83 ec 28                 	subq	$0x28, %rsp
140001e48: e8 63 04 00 00              	callq	0x1400022b0 <.text+0x12b0>
140001e4d: 48 83 c4 28                 	addq	$0x28, %rsp
140001e51: e9 72 fe ff ff              	jmp	0x140001cc8 <.text+0xcc8>
140001e56: cc                          	int3
140001e57: cc                          	int3
140001e58: 40 53                       	pushq	%rbx
140001e5a: 48 83 ec 20                 	subq	$0x20, %rsp
140001e5e: 48 8b d9                    	movq	%rcx, %rbx
140001e61: 33 c9                       	xorl	%ecx, %ecx
140001e63: ff 15 d7 11 00 00           	callq	*0x11d7(%rip)           # 0x140003040
140001e69: 48 8b cb                    	movq	%rbx, %rcx
140001e6c: ff 15 d6 11 00 00           	callq	*0x11d6(%rip)           # 0x140003048
140001e72: ff 15 c0 11 00 00           	callq	*0x11c0(%rip)           # 0x140003038
140001e78: 48 8b c8                    	movq	%rax, %rcx
140001e7b: ba 09 04 00 c0              	movl	$0xc0000409, %edx       # imm = 0xC0000409
140001e80: 48 83 c4 20                 	addq	$0x20, %rsp
140001e84: 5b                          	popq	%rbx
140001e85: 48 ff 25 a4 11 00 00        	jmpq	*0x11a4(%rip)           # 0x140003030
140001e8c: 48 89 4c 24 08              	movq	%rcx, 0x8(%rsp)
140001e91: 48 83 ec 38                 	subq	$0x38, %rsp
140001e95: b9 17 00 00 00              	movl	$0x17, %ecx
140001e9a: ff 15 88 11 00 00           	callq	*0x1188(%rip)           # 0x140003028
140001ea0: 85 c0                       	testl	%eax, %eax
140001ea2: 74 07                       	je	0x140001eab <.text+0xeab>
140001ea4: b9 02 00 00 00              	movl	$0x2, %ecx
140001ea9: cd 29                       	int	$0x29
140001eab: 48 8d 0d 9e a8 00 00        	leaq	0xa89e(%rip), %rcx      # 0x14000c750
140001eb2: e8 a9 00 00 00              	callq	0x140001f60 <.text+0xf60>
140001eb7: 48 8b 44 24 38              	movq	0x38(%rsp), %rax
140001ebc: 48 89 05 85 a9 00 00        	movq	%rax, 0xa985(%rip)      # 0x14000c848
140001ec3: 48 8d 44 24 38              	leaq	0x38(%rsp), %rax
140001ec8: 48 83 c0 08                 	addq	$0x8, %rax
140001ecc: 48 89 05 15 a9 00 00        	movq	%rax, 0xa915(%rip)      # 0x14000c7e8
140001ed3: 48 8b 05 6e a9 00 00        	movq	0xa96e(%rip), %rax      # 0x14000c848
140001eda: 48 89 05 df a7 00 00        	movq	%rax, 0xa7df(%rip)      # 0x14000c6c0
140001ee1: 48 8b 44 24 40              	movq	0x40(%rsp), %rax
140001ee6: 48 89 05 e3 a8 00 00        	movq	%rax, 0xa8e3(%rip)      # 0x14000c7d0
140001eed: c7 05 b9 a7 00 00 09 04 00 c0       	movl	$0xc0000409, 0xa7b9(%rip) # imm = 0xC0000409
                                                                        # 0x14000c6b0
140001ef7: c7 05 b3 a7 00 00 01 00 00 00       	movl	$0x1, 0xa7b3(%rip) # 0x14000c6b4
140001f01: c7 05 bd a7 00 00 01 00 00 00       	movl	$0x1, 0xa7bd(%rip) # 0x14000c6c8
140001f0b: b8 08 00 00 00              	movl	$0x8, %eax
140001f10: 48 6b c0 00                 	imulq	$0x0, %rax, %rax
140001f14: 48 8d 0d b5 a7 00 00        	leaq	0xa7b5(%rip), %rcx      # 0x14000c6d0
140001f1b: 48 c7 04 01 02 00 00 00     	movq	$0x2, (%rcx,%rax)
140001f23: b8 08 00 00 00              	movl	$0x8, %eax
140001f28: 48 6b c0 00                 	imulq	$0x0, %rax, %rax
140001f2c: 48 8b 0d 0d 21 00 00        	movq	0x210d(%rip), %rcx      # 0x140004040
140001f33: 48 89 4c 04 20              	movq	%rcx, 0x20(%rsp,%rax)
140001f38: b8 08 00 00 00              	movl	$0x8, %eax
140001f3d: 48 6b c0 01                 	imulq	$0x1, %rax, %rax
140001f41: 48 8b 0d 38 21 00 00        	movq	0x2138(%rip), %rcx      # 0x140004080
140001f48: 48 89 4c 04 20              	movq	%rcx, 0x20(%rsp,%rax)
140001f4d: 48 8d 0d b4 13 00 00        	leaq	0x13b4(%rip), %rcx      # 0x140003308
140001f54: e8 ff fe ff ff              	callq	0x140001e58 <.text+0xe58>
140001f59: 48 83 c4 38                 	addq	$0x38, %rsp
140001f5d: c3                          	retq
140001f5e: cc                          	int3
140001f5f: cc                          	int3
140001f60: 40 53                       	pushq	%rbx
140001f62: 56                          	pushq	%rsi
140001f63: 57                          	pushq	%rdi
140001f64: 48 83 ec 40                 	subq	$0x40, %rsp
140001f68: 48 8b d9                    	movq	%rcx, %rbx
140001f6b: ff 15 ef 10 00 00           	callq	*0x10ef(%rip)           # 0x140003060
140001f71: 48 8b b3 f8 00 00 00        	movq	0xf8(%rbx), %rsi
140001f78: 33 ff                       	xorl	%edi, %edi
140001f7a: 45 33 c0                    	xorl	%r8d, %r8d
140001f7d: 48 8d 54 24 60              	leaq	0x60(%rsp), %rdx
140001f82: 48 8b ce                    	movq	%rsi, %rcx
140001f85: ff 15 cd 10 00 00           	callq	*0x10cd(%rip)           # 0x140003058
140001f8b: 48 85 c0                    	testq	%rax, %rax
140001f8e: 74 39                       	je	0x140001fc9 <.text+0xfc9>
140001f90: 48 83 64 24 38 00           	andq	$0x0, 0x38(%rsp)
140001f96: 48 8d 4c 24 68              	leaq	0x68(%rsp), %rcx
140001f9b: 48 8b 54 24 60              	movq	0x60(%rsp), %rdx
140001fa0: 4c 8b c8                    	movq	%rax, %r9
140001fa3: 48 89 4c 24 30              	movq	%rcx, 0x30(%rsp)
140001fa8: 4c 8b c6                    	movq	%rsi, %r8
140001fab: 48 8d 4c 24 70              	leaq	0x70(%rsp), %rcx
140001fb0: 48 89 4c 24 28              	movq	%rcx, 0x28(%rsp)
140001fb5: 33 c9                       	xorl	%ecx, %ecx
140001fb7: 48 89 5c 24 20              	movq	%rbx, 0x20(%rsp)
140001fbc: ff 15 8e 10 00 00           	callq	*0x108e(%rip)           # 0x140003050
140001fc2: ff c7                       	incl	%edi
140001fc4: 83 ff 02                    	cmpl	$0x2, %edi
140001fc7: 7c b1                       	jl	0x140001f7a <.text+0xf7a>
140001fc9: 48 83 c4 40                 	addq	$0x40, %rsp
140001fcd: 5f                          	popq	%rdi
140001fce: 5e                          	popq	%rsi
140001fcf: 5b                          	popq	%rbx
140001fd0: c3                          	retq
140001fd1: cc                          	int3
140001fd2: cc                          	int3
140001fd3: cc                          	int3
140001fd4: cc                          	int3
140001fd5: cc                          	int3
140001fd6: cc                          	int3
140001fd7: cc                          	int3
140001fd8: cc                          	int3
140001fd9: cc                          	int3
140001fda: cc                          	int3
140001fdb: cc                          	int3
140001fdc: cc                          	int3
140001fdd: cc                          	int3
140001fde: cc                          	int3
140001fdf: cc                          	int3
140001fe0: cc                          	int3
140001fe1: cc                          	int3
140001fe2: cc                          	int3
140001fe3: cc                          	int3
140001fe4: cc                          	int3
140001fe5: cc                          	int3
140001fe6: 66 66 0f 1f 84 00 00 00 00 00       	nopw	(%rax,%rax)
140001ff0: 48 83 ec 10                 	subq	$0x10, %rsp
140001ff4: 4c 89 14 24                 	movq	%r10, (%rsp)
140001ff8: 4c 89 5c 24 08              	movq	%r11, 0x8(%rsp)
140001ffd: 4d 33 db                    	xorq	%r11, %r11
140002000: 4c 8d 54 24 18              	leaq	0x18(%rsp), %r10
140002005: 4c 2b d0                    	subq	%rax, %r10
140002008: 4d 0f 42 d3                 	cmovbq	%r11, %r10
14000200c: 65 4c 8b 1c 25 10 00 00 00  	movq	%gs:0x10, %r11
140002015: 4d 3b d3                    	cmpq	%r11, %r10
140002018: 73 16                       	jae	0x140002030 <.text+0x1030>
14000201a: 66 41 81 e2 00 f0           	andw	$0xf000, %r10w          # imm = 0xF000
140002020: 4d 8d 9b 00 f0 ff ff        	leaq	-0x1000(%r11), %r11
140002027: 41 c6 03 00                 	movb	$0x0, (%r11)
14000202b: 4d 3b d3                    	cmpq	%r11, %r10
14000202e: 75 f0                       	jne	0x140002020 <.text+0x1020>
140002030: 4c 8b 14 24                 	movq	(%rsp), %r10
140002034: 4c 8b 5c 24 08              	movq	0x8(%rsp), %r11
140002039: 48 83 c4 10                 	addq	$0x10, %rsp
14000203d: c3                          	retq
14000203e: cc                          	int3
14000203f: cc                          	int3
140002040: cc                          	int3
140002041: cc                          	int3
140002042: cc                          	int3
140002043: cc                          	int3
140002044: cc                          	int3
140002045: cc                          	int3
140002046: 66 66 0f 1f 84 00 00 00 00 00       	nopw	(%rax,%rax)
140002050: 48 3b 0d e9 1f 00 00        	cmpq	0x1fe9(%rip), %rcx      # 0x140004040
140002057: 75 10                       	jne	0x140002069 <.text+0x1069>
140002059: 48 c1 c1 10                 	rolq	$0x10, %rcx
14000205d: 66 f7 c1 ff ff              	testw	$0xffff, %cx            # imm = 0xFFFF
140002062: 75 01                       	jne	0x140002065 <.text+0x1065>
140002064: c3                          	retq
140002065: 48 c1 c9 10                 	rorq	$0x10, %rcx
140002069: e9 1e fe ff ff              	jmp	0x140001e8c <.text+0xe8c>
14000206e: cc                          	int3
14000206f: cc                          	int3
140002070: 48 83 ec 28                 	subq	$0x28, %rsp
140002074: e8 83 07 00 00              	callq	0x1400027fc <.text+0x17fc>
140002079: 85 c0                       	testl	%eax, %eax
14000207b: 74 21                       	je	0x14000209e <.text+0x109e>
14000207d: 65 48 8b 04 25 30 00 00 00  	movq	%gs:0x30, %rax
140002086: 48 8b 48 08                 	movq	0x8(%rax), %rcx
14000208a: eb 05                       	jmp	0x140002091 <.text+0x1091>
14000208c: 48 3b c8                    	cmpq	%rax, %rcx
14000208f: 74 14                       	je	0x1400020a5 <.text+0x10a5>
140002091: 33 c0                       	xorl	%eax, %eax
140002093: f0                          	lock
140002094: 48 0f b1 0d 8c ab 00 00     	cmpxchgq	%rcx, 0xab8c(%rip)      # 0x14000cc28
14000209c: 75 ee                       	jne	0x14000208c <.text+0x108c>
14000209e: 32 c0                       	xorb	%al, %al
1400020a0: 48 83 c4 28                 	addq	$0x28, %rsp
1400020a4: c3                          	retq
1400020a5: b0 01                       	movb	$0x1, %al
1400020a7: eb f7                       	jmp	0x1400020a0 <.text+0x10a0>
1400020a9: cc                          	int3
1400020aa: cc                          	int3
1400020ab: cc                          	int3
1400020ac: 48 83 ec 28                 	subq	$0x28, %rsp
1400020b0: 85 c9                       	testl	%ecx, %ecx
1400020b2: 75 07                       	jne	0x1400020bb <.text+0x10bb>
1400020b4: c6 05 75 ab 00 00 01        	movb	$0x1, 0xab75(%rip)      # 0x14000cc30
1400020bb: e8 90 05 00 00              	callq	0x140002650 <.text+0x1650>
1400020c0: e8 bb 02 00 00              	callq	0x140002380 <.text+0x1380>
1400020c5: 84 c0                       	testb	%al, %al
1400020c7: 75 04                       	jne	0x1400020cd <.text+0x10cd>
1400020c9: 32 c0                       	xorb	%al, %al
1400020cb: eb 14                       	jmp	0x1400020e1 <.text+0x10e1>
1400020cd: e8 ae 02 00 00              	callq	0x140002380 <.text+0x1380>
1400020d2: 84 c0                       	testb	%al, %al
1400020d4: 75 09                       	jne	0x1400020df <.text+0x10df>
1400020d6: 33 c9                       	xorl	%ecx, %ecx
1400020d8: e8 a3 02 00 00              	callq	0x140002380 <.text+0x1380>
1400020dd: eb ea                       	jmp	0x1400020c9 <.text+0x10c9>
1400020df: b0 01                       	movb	$0x1, %al
1400020e1: 48 83 c4 28                 	addq	$0x28, %rsp
1400020e5: c3                          	retq
1400020e6: cc                          	int3
1400020e7: cc                          	int3
1400020e8: 40 53                       	pushq	%rbx
1400020ea: 48 83 ec 20                 	subq	$0x20, %rsp
1400020ee: 80 3d 3c ab 00 00 00        	cmpb	$0x0, 0xab3c(%rip)      # 0x14000cc31
1400020f5: 8b d9                       	movl	%ecx, %ebx
1400020f7: 75 67                       	jne	0x140002160 <.text+0x1160>
1400020f9: 83 f9 01                    	cmpl	$0x1, %ecx
1400020fc: 77 6a                       	ja	0x140002168 <.text+0x1168>
1400020fe: e8 f9 06 00 00              	callq	0x1400027fc <.text+0x17fc>
140002103: 85 c0                       	testl	%eax, %eax
140002105: 74 28                       	je	0x14000212f <.text+0x112f>
140002107: 85 db                       	testl	%ebx, %ebx
140002109: 75 24                       	jne	0x14000212f <.text+0x112f>
14000210b: 48 8d 0d 26 ab 00 00        	leaq	0xab26(%rip), %rcx      # 0x14000cc38
140002112: e8 77 07 00 00              	callq	0x14000288e <.text+0x188e>
140002117: 85 c0                       	testl	%eax, %eax
140002119: 75 10                       	jne	0x14000212b <.text+0x112b>
14000211b: 48 8d 0d 2e ab 00 00        	leaq	0xab2e(%rip), %rcx      # 0x14000cc50
140002122: e8 67 07 00 00              	callq	0x14000288e <.text+0x188e>
140002127: 85 c0                       	testl	%eax, %eax
140002129: 74 2e                       	je	0x140002159 <.text+0x1159>
14000212b: 32 c0                       	xorb	%al, %al
14000212d: eb 33                       	jmp	0x140002162 <.text+0x1162>
14000212f: 66 0f 6f 05 e9 11 00 00     	movdqa	0x11e9(%rip), %xmm0     # 0x140003320
140002137: 48 83 c8 ff                 	orq	$-0x1, %rax
14000213b: f3 0f 7f 05 f5 aa 00 00     	movdqu	%xmm0, 0xaaf5(%rip)     # 0x14000cc38
140002143: 48 89 05 fe aa 00 00        	movq	%rax, 0xaafe(%rip)      # 0x14000cc48
14000214a: f3 0f 7f 05 fe aa 00 00     	movdqu	%xmm0, 0xaafe(%rip)     # 0x14000cc50
140002152: 48 89 05 07 ab 00 00        	movq	%rax, 0xab07(%rip)      # 0x14000cc60
140002159: c6 05 d1 aa 00 00 01        	movb	$0x1, 0xaad1(%rip)      # 0x14000cc31
140002160: b0 01                       	movb	$0x1, %al
140002162: 48 83 c4 20                 	addq	$0x20, %rsp
140002166: 5b                          	popq	%rbx
140002167: c3                          	retq
140002168: b9 05 00 00 00              	movl	$0x5, %ecx
14000216d: e8 56 02 00 00              	callq	0x1400023c8 <.text+0x13c8>
140002172: cc                          	int3
140002173: cc                          	int3
140002174: 48 83 ec 18                 	subq	$0x18, %rsp
140002178: 4c 8b c1                    	movq	%rcx, %r8
14000217b: b8 4d 5a 00 00              	movl	$0x5a4d, %eax           # imm = 0x5A4D
140002180: 66 39 05 79 de ff ff        	cmpw	%ax, -0x2187(%rip)      # 0x140000000
140002187: 75 78                       	jne	0x140002201 <.text+0x1201>
140002189: 48 63 0d ac de ff ff        	movslq	-0x2154(%rip), %rcx     # 0x14000003c
140002190: 48 8d 15 69 de ff ff        	leaq	-0x2197(%rip), %rdx     # 0x140000000
140002197: 48 03 ca                    	addq	%rdx, %rcx
14000219a: 81 39 50 45 00 00           	cmpl	$0x4550, (%rcx)         # imm = 0x4550
1400021a0: 75 5f                       	jne	0x140002201 <.text+0x1201>
1400021a2: b8 0b 02 00 00              	movl	$0x20b, %eax            # imm = 0x20B
1400021a7: 66 39 41 18                 	cmpw	%ax, 0x18(%rcx)
1400021ab: 75 54                       	jne	0x140002201 <.text+0x1201>
1400021ad: 4c 2b c2                    	subq	%rdx, %r8
1400021b0: 0f b7 51 14                 	movzwl	0x14(%rcx), %edx
1400021b4: 48 83 c2 18                 	addq	$0x18, %rdx
1400021b8: 48 03 d1                    	addq	%rcx, %rdx
1400021bb: 0f b7 41 06                 	movzwl	0x6(%rcx), %eax
1400021bf: 48 8d 0c 80                 	leaq	(%rax,%rax,4), %rcx
1400021c3: 4c 8d 0c ca                 	leaq	(%rdx,%rcx,8), %r9
1400021c7: 48 89 14 24                 	movq	%rdx, (%rsp)
1400021cb: 49 3b d1                    	cmpq	%r9, %rdx
1400021ce: 74 18                       	je	0x1400021e8 <.text+0x11e8>
1400021d0: 8b 4a 0c                    	movl	0xc(%rdx), %ecx
1400021d3: 4c 3b c1                    	cmpq	%rcx, %r8
1400021d6: 72 0a                       	jb	0x1400021e2 <.text+0x11e2>
1400021d8: 8b 42 08                    	movl	0x8(%rdx), %eax
1400021db: 03 c1                       	addl	%ecx, %eax
1400021dd: 4c 3b c0                    	cmpq	%rax, %r8
1400021e0: 72 08                       	jb	0x1400021ea <.text+0x11ea>
1400021e2: 48 83 c2 28                 	addq	$0x28, %rdx
1400021e6: eb df                       	jmp	0x1400021c7 <.text+0x11c7>
1400021e8: 33 d2                       	xorl	%edx, %edx
1400021ea: 48 85 d2                    	testq	%rdx, %rdx
1400021ed: 75 04                       	jne	0x1400021f3 <.text+0x11f3>
1400021ef: 32 c0                       	xorb	%al, %al
1400021f1: eb 14                       	jmp	0x140002207 <.text+0x1207>
1400021f3: 83 7a 24 00                 	cmpl	$0x0, 0x24(%rdx)
1400021f7: 7d 04                       	jge	0x1400021fd <.text+0x11fd>
1400021f9: 32 c0                       	xorb	%al, %al
1400021fb: eb 0a                       	jmp	0x140002207 <.text+0x1207>
1400021fd: b0 01                       	movb	$0x1, %al
1400021ff: eb 06                       	jmp	0x140002207 <.text+0x1207>
140002201: 32 c0                       	xorb	%al, %al
140002203: eb 02                       	jmp	0x140002207 <.text+0x1207>
140002205: 32 c0                       	xorb	%al, %al
140002207: 48 83 c4 18                 	addq	$0x18, %rsp
14000220b: c3                          	retq
14000220c: 40 53                       	pushq	%rbx
14000220e: 48 83 ec 20                 	subq	$0x20, %rsp
140002212: 8a d9                       	movb	%cl, %bl
140002214: e8 e3 05 00 00              	callq	0x1400027fc <.text+0x17fc>
140002219: 33 d2                       	xorl	%edx, %edx
14000221b: 85 c0                       	testl	%eax, %eax
14000221d: 74 0b                       	je	0x14000222a <.text+0x122a>
14000221f: 84 db                       	testb	%bl, %bl
140002221: 75 07                       	jne	0x14000222a <.text+0x122a>
140002223: 48 87 15 fe a9 00 00        	xchgq	%rdx, 0xa9fe(%rip)      # 0x14000cc28
14000222a: 48 83 c4 20                 	addq	$0x20, %rsp
14000222e: 5b                          	popq	%rbx
14000222f: c3                          	retq
140002230: 40 53                       	pushq	%rbx
140002232: 48 83 ec 20                 	subq	$0x20, %rsp
140002236: 80 3d f3 a9 00 00 00        	cmpb	$0x0, 0xa9f3(%rip)      # 0x14000cc30
14000223d: 8a d9                       	movb	%cl, %bl
14000223f: 74 04                       	je	0x140002245 <.text+0x1245>
140002241: 84 d2                       	testb	%dl, %dl
140002243: 75 0c                       	jne	0x140002251 <.text+0x1251>
140002245: e8 36 01 00 00              	callq	0x140002380 <.text+0x1380>
14000224a: 8a cb                       	movb	%bl, %cl
14000224c: e8 2f 01 00 00              	callq	0x140002380 <.text+0x1380>
140002251: b0 01                       	movb	$0x1, %al
140002253: 48 83 c4 20                 	addq	$0x20, %rsp
140002257: 5b                          	popq	%rbx
140002258: c3                          	retq
140002259: cc                          	int3
14000225a: cc                          	int3
14000225b: cc                          	int3
14000225c: 40 53                       	pushq	%rbx
14000225e: 48 83 ec 20                 	subq	$0x20, %rsp
140002262: 48 83 3d ce a9 00 00 ff     	cmpq	$-0x1, 0xa9ce(%rip)     # 0x14000cc38
14000226a: 48 8b d9                    	movq	%rcx, %rbx
14000226d: 75 07                       	jne	0x140002276 <.text+0x1276>
14000226f: e8 26 06 00 00              	callq	0x14000289a <.text+0x189a>
140002274: eb 0f                       	jmp	0x140002285 <.text+0x1285>
140002276: 48 8b d3                    	movq	%rbx, %rdx
140002279: 48 8d 0d b8 a9 00 00        	leaq	0xa9b8(%rip), %rcx      # 0x14000cc38
140002280: e8 0f 06 00 00              	callq	0x140002894 <.text+0x1894>
140002285: 33 d2                       	xorl	%edx, %edx
140002287: 85 c0                       	testl	%eax, %eax
140002289: 48 0f 44 d3                 	cmoveq	%rbx, %rdx
14000228d: 48 8b c2                    	movq	%rdx, %rax
140002290: 48 83 c4 20                 	addq	$0x20, %rsp
140002294: 5b                          	popq	%rbx
140002295: c3                          	retq
140002296: cc                          	int3
140002297: cc                          	int3
140002298: 48 83 ec 28                 	subq	$0x28, %rsp
14000229c: e8 bb ff ff ff              	callq	0x14000225c <.text+0x125c>
1400022a1: 48 f7 d8                    	negq	%rax
1400022a4: 1b c0                       	sbbl	%eax, %eax
1400022a6: f7 d8                       	negl	%eax
1400022a8: ff c8                       	decl	%eax
1400022aa: 48 83 c4 28                 	addq	$0x28, %rsp
1400022ae: c3                          	retq
1400022af: cc                          	int3
1400022b0: 48 89 5c 24 18              	movq	%rbx, 0x18(%rsp)
1400022b5: 55                          	pushq	%rbp
1400022b6: 48 8b ec                    	movq	%rsp, %rbp
1400022b9: 48 83 ec 30                 	subq	$0x30, %rsp
1400022bd: 48 8b 05 7c 1d 00 00        	movq	0x1d7c(%rip), %rax      # 0x140004040
1400022c4: 48 bb 32 a2 df 2d 99 2b 00 00       	movabsq	$0x2b992ddfa232, %rbx # imm = 0x2B992DDFA232
1400022ce: 48 3b c3                    	cmpq	%rbx, %rax
1400022d1: 75 74                       	jne	0x140002347 <.text+0x1347>
1400022d3: 48 83 65 10 00              	andq	$0x0, 0x10(%rbp)
1400022d8: 48 8d 4d 10                 	leaq	0x10(%rbp), %rcx
1400022dc: ff 15 86 0d 00 00           	callq	*0xd86(%rip)            # 0x140003068
1400022e2: 48 8b 45 10                 	movq	0x10(%rbp), %rax
1400022e6: 48 89 45 f0                 	movq	%rax, -0x10(%rbp)
1400022ea: ff 15 28 0d 00 00           	callq	*0xd28(%rip)            # 0x140003018
1400022f0: 8b c0                       	movl	%eax, %eax
1400022f2: 48 31 45 f0                 	xorq	%rax, -0x10(%rbp)
1400022f6: ff 15 24 0d 00 00           	callq	*0xd24(%rip)            # 0x140003020
1400022fc: 8b c0                       	movl	%eax, %eax
1400022fe: 48 8d 4d 18                 	leaq	0x18(%rbp), %rcx
140002302: 48 31 45 f0                 	xorq	%rax, -0x10(%rbp)
140002306: ff 15 6c 0d 00 00           	callq	*0xd6c(%rip)            # 0x140003078
14000230c: 8b 45 18                    	movl	0x18(%rbp), %eax
14000230f: 48 8d 4d f0                 	leaq	-0x10(%rbp), %rcx
140002313: 48 c1 e0 20                 	shlq	$0x20, %rax
140002317: 48 33 45 18                 	xorq	0x18(%rbp), %rax
14000231b: 48 33 45 f0                 	xorq	-0x10(%rbp), %rax
14000231f: 48 33 c1                    	xorq	%rcx, %rax
140002322: 48 b9 ff ff ff ff ff ff 00 00       	movabsq	$0xffffffffffff, %rcx # imm = 0xFFFFFFFFFFFF
14000232c: 48 23 c1                    	andq	%rcx, %rax
14000232f: 48 b9 33 a2 df 2d 99 2b 00 00       	movabsq	$0x2b992ddfa233, %rcx # imm = 0x2B992DDFA233
140002339: 48 3b c3                    	cmpq	%rbx, %rax
14000233c: 48 0f 44 c1                 	cmoveq	%rcx, %rax
140002340: 48 89 05 f9 1c 00 00        	movq	%rax, 0x1cf9(%rip)      # 0x140004040
140002347: 48 8b 5c 24 50              	movq	0x50(%rsp), %rbx
14000234c: 48 f7 d0                    	notq	%rax
14000234f: 48 89 05 2a 1d 00 00        	movq	%rax, 0x1d2a(%rip)      # 0x140004080
140002356: 48 83 c4 30                 	addq	$0x30, %rsp
14000235a: 5d                          	popq	%rbp
14000235b: c3                          	retq
14000235c: 33 c0                       	xorl	%eax, %eax
14000235e: c3                          	retq
14000235f: cc                          	int3
140002360: b8 01 00 00 00              	movl	$0x1, %eax
140002365: c3                          	retq
140002366: cc                          	int3
140002367: cc                          	int3
140002368: b8 00 40 00 00              	movl	$0x4000, %eax           # imm = 0x4000
14000236d: c3                          	retq
14000236e: cc                          	int3
14000236f: cc                          	int3
140002370: 48 8d 0d f9 a8 00 00        	leaq	0xa8f9(%rip), %rcx      # 0x14000cc70
140002377: 48 ff 25 92 0c 00 00        	jmpq	*0xc92(%rip)            # 0x140003010
14000237e: cc                          	int3
14000237f: cc                          	int3
140002380: b0 01                       	movb	$0x1, %al
140002382: c3                          	retq
140002383: cc                          	int3
140002384: c2 00 00                    	retq	$0x0
140002387: cc                          	int3
140002388: 48 83 ec 28                 	subq	$0x28, %rsp
14000238c: e8 7f f7 ff ff              	callq	0x140001b10 <.text+0xb10>
140002391: 48 83 08 24                 	orq	$0x24, (%rax)
140002395: e8 e6 f7 ff ff              	callq	0x140001b80 <.text+0xb80>
14000239a: 48 83 08 02                 	orq	$0x2, (%rax)
14000239e: 48 83 c4 28                 	addq	$0x28, %rsp
1400023a2: c3                          	retq
1400023a3: cc                          	int3
1400023a4: 33 c0                       	xorl	%eax, %eax
1400023a6: 39 05 e0 1c 00 00           	cmpl	%eax, 0x1ce0(%rip)      # 0x14000408c
1400023ac: 0f 94 c0                    	sete	%al
1400023af: c3                          	retq
1400023b0: 48 8d 05 e9 a8 00 00        	leaq	0xa8e9(%rip), %rax      # 0x14000cca0
1400023b7: c3                          	retq
1400023b8: 48 8d 05 d9 a8 00 00        	leaq	0xa8d9(%rip), %rax      # 0x14000cc98
1400023bf: c3                          	retq
1400023c0: 83 25 b9 a8 00 00 00        	andl	$0x0, 0xa8b9(%rip)      # 0x14000cc80
1400023c7: c3                          	retq
1400023c8: 48 89 5c 24 08              	movq	%rbx, 0x8(%rsp)
1400023cd: 55                          	pushq	%rbp
1400023ce: 48 8d ac 24 40 fb ff ff     	leaq	-0x4c0(%rsp), %rbp
1400023d6: 48 81 ec c0 05 00 00        	subq	$0x5c0, %rsp            # imm = 0x5C0
1400023dd: 8b d9                       	movl	%ecx, %ebx
1400023df: b9 17 00 00 00              	movl	$0x17, %ecx
1400023e4: ff 15 3e 0c 00 00           	callq	*0xc3e(%rip)            # 0x140003028
1400023ea: 85 c0                       	testl	%eax, %eax
1400023ec: 74 04                       	je	0x1400023f2 <.text+0x13f2>
1400023ee: 8b cb                       	movl	%ebx, %ecx
1400023f0: cd 29                       	int	$0x29
1400023f2: b9 03 00 00 00              	movl	$0x3, %ecx
1400023f7: e8 c4 ff ff ff              	callq	0x1400023c0 <.text+0x13c0>
1400023fc: 33 d2                       	xorl	%edx, %edx
1400023fe: 48 8d 4d f0                 	leaq	-0x10(%rbp), %rcx
140002402: 41 b8 d0 04 00 00           	movl	$0x4d0, %r8d            # imm = 0x4D0
140002408: e8 a5 04 00 00              	callq	0x1400028b2 <.text+0x18b2>
14000240d: 48 8d 4d f0                 	leaq	-0x10(%rbp), %rcx
140002411: ff 15 49 0c 00 00           	callq	*0xc49(%rip)            # 0x140003060
140002417: 48 8b 9d e8 00 00 00        	movq	0xe8(%rbp), %rbx
14000241e: 48 8d 95 d8 04 00 00        	leaq	0x4d8(%rbp), %rdx
140002425: 48 8b cb                    	movq	%rbx, %rcx
140002428: 45 33 c0                    	xorl	%r8d, %r8d
14000242b: ff 15 27 0c 00 00           	callq	*0xc27(%rip)            # 0x140003058
140002431: 48 85 c0                    	testq	%rax, %rax
140002434: 74 3c                       	je	0x140002472 <.text+0x1472>
140002436: 48 83 64 24 38 00           	andq	$0x0, 0x38(%rsp)
14000243c: 48 8d 8d e0 04 00 00        	leaq	0x4e0(%rbp), %rcx
140002443: 48 8b 95 d8 04 00 00        	movq	0x4d8(%rbp), %rdx
14000244a: 4c 8b c8                    	movq	%rax, %r9
14000244d: 48 89 4c 24 30              	movq	%rcx, 0x30(%rsp)
140002452: 4c 8b c3                    	movq	%rbx, %r8
140002455: 48 8d 8d e8 04 00 00        	leaq	0x4e8(%rbp), %rcx
14000245c: 48 89 4c 24 28              	movq	%rcx, 0x28(%rsp)
140002461: 48 8d 4d f0                 	leaq	-0x10(%rbp), %rcx
140002465: 48 89 4c 24 20              	movq	%rcx, 0x20(%rsp)
14000246a: 33 c9                       	xorl	%ecx, %ecx
14000246c: ff 15 de 0b 00 00           	callq	*0xbde(%rip)            # 0x140003050
140002472: 48 8b 85 c8 04 00 00        	movq	0x4c8(%rbp), %rax
140002479: 48 8d 4c 24 50              	leaq	0x50(%rsp), %rcx
14000247e: 48 89 85 e8 00 00 00        	movq	%rax, 0xe8(%rbp)
140002485: 33 d2                       	xorl	%edx, %edx
140002487: 48 8d 85 c8 04 00 00        	leaq	0x4c8(%rbp), %rax
14000248e: 41 b8 98 00 00 00           	movl	$0x98, %r8d
140002494: 48 83 c0 08                 	addq	$0x8, %rax
140002498: 48 89 85 88 00 00 00        	movq	%rax, 0x88(%rbp)
14000249f: e8 0e 04 00 00              	callq	0x1400028b2 <.text+0x18b2>
1400024a4: 48 8b 85 c8 04 00 00        	movq	0x4c8(%rbp), %rax
1400024ab: 48 89 44 24 60              	movq	%rax, 0x60(%rsp)
1400024b0: c7 44 24 50 15 00 00 40     	movl	$0x40000015, 0x50(%rsp) # imm = 0x40000015
1400024b8: c7 44 24 54 01 00 00 00     	movl	$0x1, 0x54(%rsp)
1400024c0: ff 15 42 0b 00 00           	callq	*0xb42(%rip)            # 0x140003008
1400024c6: 8b d8                       	movl	%eax, %ebx
1400024c8: 33 c9                       	xorl	%ecx, %ecx
1400024ca: 48 8d 44 24 50              	leaq	0x50(%rsp), %rax
1400024cf: 48 89 44 24 40              	movq	%rax, 0x40(%rsp)
1400024d4: 48 8d 45 f0                 	leaq	-0x10(%rbp), %rax
1400024d8: 48 89 44 24 48              	movq	%rax, 0x48(%rsp)
1400024dd: ff 15 5d 0b 00 00           	callq	*0xb5d(%rip)            # 0x140003040
1400024e3: 48 8d 4c 24 40              	leaq	0x40(%rsp), %rcx
1400024e8: ff 15 5a 0b 00 00           	callq	*0xb5a(%rip)            # 0x140003048
1400024ee: 85 c0                       	testl	%eax, %eax
1400024f0: 75 0d                       	jne	0x1400024ff <.text+0x14ff>
1400024f2: 83 fb 01                    	cmpl	$0x1, %ebx
1400024f5: 74 08                       	je	0x1400024ff <.text+0x14ff>
1400024f7: 8d 48 03                    	leal	0x3(%rax), %ecx
1400024fa: e8 c1 fe ff ff              	callq	0x1400023c0 <.text+0x13c0>
1400024ff: 48 8b 9c 24 d0 05 00 00     	movq	0x5d0(%rsp), %rbx
140002507: 48 81 c4 c0 05 00 00        	addq	$0x5c0, %rsp            # imm = 0x5C0
14000250e: 5d                          	popq	%rbp
14000250f: c3                          	retq
140002510: e9 47 fe ff ff              	jmp	0x14000235c <.text+0x135c>
140002515: cc                          	int3
140002516: cc                          	int3
140002517: cc                          	int3
140002518: 48 83 ec 28                 	subq	$0x28, %rsp
14000251c: 33 c9                       	xorl	%ecx, %ecx
14000251e: ff 15 dc 0a 00 00           	callq	*0xadc(%rip)            # 0x140003000
140002524: 48 85 c0                    	testq	%rax, %rax
140002527: 74 39                       	je	0x140002562 <.text+0x1562>
140002529: b9 4d 5a 00 00              	movl	$0x5a4d, %ecx           # imm = 0x5A4D
14000252e: 66 39 08                    	cmpw	%cx, (%rax)
140002531: 75 2f                       	jne	0x140002562 <.text+0x1562>
140002533: 48 63 48 3c                 	movslq	0x3c(%rax), %rcx
140002537: 48 03 c8                    	addq	%rax, %rcx
14000253a: 81 39 50 45 00 00           	cmpl	$0x4550, (%rcx)         # imm = 0x4550
140002540: 75 20                       	jne	0x140002562 <.text+0x1562>
140002542: b8 0b 02 00 00              	movl	$0x20b, %eax            # imm = 0x20B
140002547: 66 39 41 18                 	cmpw	%ax, 0x18(%rcx)
14000254b: 75 15                       	jne	0x140002562 <.text+0x1562>
14000254d: 83 b9 84 00 00 00 0e        	cmpl	$0xe, 0x84(%rcx)
140002554: 76 0c                       	jbe	0x140002562 <.text+0x1562>
140002556: 83 b9 f8 00 00 00 00        	cmpl	$0x0, 0xf8(%rcx)
14000255d: 0f 95 c0                    	setne	%al
140002560: eb 02                       	jmp	0x140002564 <.text+0x1564>
140002562: 32 c0                       	xorb	%al, %al
140002564: 48 83 c4 28                 	addq	$0x28, %rsp
140002568: c3                          	retq
140002569: cc                          	int3
14000256a: cc                          	int3
14000256b: cc                          	int3
14000256c: 48 8d 0d 09 00 00 00        	leaq	0x9(%rip), %rcx         # 0x14000257c <.text+0x157c>
140002573: 48 ff 25 c6 0a 00 00        	jmpq	*0xac6(%rip)            # 0x140003040
14000257a: cc                          	int3
14000257b: cc                          	int3
14000257c: 48 89 5c 24 08              	movq	%rbx, 0x8(%rsp)
140002581: 57                          	pushq	%rdi
140002582: 48 83 ec 20                 	subq	$0x20, %rsp
140002586: 48 8b 19                    	movq	(%rcx), %rbx
140002589: 48 8b f9                    	movq	%rcx, %rdi
14000258c: 81 3b 63 73 6d e0           	cmpl	$0xe06d7363, (%rbx)     # imm = 0xE06D7363
140002592: 75 1c                       	jne	0x1400025b0 <.text+0x15b0>
140002594: 83 7b 18 04                 	cmpl	$0x4, 0x18(%rbx)
140002598: 75 16                       	jne	0x1400025b0 <.text+0x15b0>
14000259a: 8b 53 20                    	movl	0x20(%rbx), %edx
14000259d: 8d 82 e0 fa 6c e6           	leal	-0x19930520(%rdx), %eax
1400025a3: 83 f8 02                    	cmpl	$0x2, %eax
1400025a6: 76 15                       	jbe	0x1400025bd <.text+0x15bd>
1400025a8: 81 fa 00 40 99 01           	cmpl	$0x1994000, %edx        # imm = 0x1994000
1400025ae: 74 0d                       	je	0x1400025bd <.text+0x15bd>
1400025b0: 48 8b 5c 24 30              	movq	0x30(%rsp), %rbx
1400025b5: 33 c0                       	xorl	%eax, %eax
1400025b7: 48 83 c4 20                 	addq	$0x20, %rsp
1400025bb: 5f                          	popq	%rdi
1400025bc: c3                          	retq
1400025bd: e8 fc 02 00 00              	callq	0x1400028be <.text+0x18be>
1400025c2: 48 89 18                    	movq	%rbx, (%rax)
1400025c5: 48 8b 5f 08                 	movq	0x8(%rdi), %rbx
1400025c9: e8 f6 02 00 00              	callq	0x1400028c4 <.text+0x18c4>
1400025ce: 48 89 18                    	movq	%rbx, (%rax)
1400025d1: e8 ca 02 00 00              	callq	0x1400028a0 <.text+0x18a0>
1400025d6: cc                          	int3
1400025d7: cc                          	int3
1400025d8: 48 89 5c 24 08              	movq	%rbx, 0x8(%rsp)
1400025dd: 57                          	pushq	%rdi
1400025de: 48 83 ec 20                 	subq	$0x20, %rsp
1400025e2: 48 8d 1d e7 11 00 00        	leaq	0x11e7(%rip), %rbx      # 0x1400037d0
1400025e9: 48 8d 3d e0 11 00 00        	leaq	0x11e0(%rip), %rdi      # 0x1400037d0
1400025f0: eb 12                       	jmp	0x140002604 <.text+0x1604>
1400025f2: 48 8b 03                    	movq	(%rbx), %rax
1400025f5: 48 85 c0                    	testq	%rax, %rax
1400025f8: 74 06                       	je	0x140002600 <.text+0x1600>
1400025fa: ff 15 d0 0b 00 00           	callq	*0xbd0(%rip)            # 0x1400031d0
140002600: 48 83 c3 08                 	addq	$0x8, %rbx
140002604: 48 3b df                    	cmpq	%rdi, %rbx
140002607: 72 e9                       	jb	0x1400025f2 <.text+0x15f2>
140002609: 48 8b 5c 24 30              	movq	0x30(%rsp), %rbx
14000260e: 48 83 c4 20                 	addq	$0x20, %rsp
140002612: 5f                          	popq	%rdi
140002613: c3                          	retq
140002614: 48 89 5c 24 08              	movq	%rbx, 0x8(%rsp)
140002619: 57                          	pushq	%rdi
14000261a: 48 83 ec 20                 	subq	$0x20, %rsp
14000261e: 48 8d 1d bb 11 00 00        	leaq	0x11bb(%rip), %rbx      # 0x1400037e0
140002625: 48 8d 3d b4 11 00 00        	leaq	0x11b4(%rip), %rdi      # 0x1400037e0
14000262c: eb 12                       	jmp	0x140002640 <.text+0x1640>
14000262e: 48 8b 03                    	movq	(%rbx), %rax
140002631: 48 85 c0                    	testq	%rax, %rax
140002634: 74 06                       	je	0x14000263c <.text+0x163c>
140002636: ff 15 94 0b 00 00           	callq	*0xb94(%rip)            # 0x1400031d0
14000263c: 48 83 c3 08                 	addq	$0x8, %rbx
140002640: 48 3b df                    	cmpq	%rdi, %rbx
140002643: 72 e9                       	jb	0x14000262e <.text+0x162e>
140002645: 48 8b 5c 24 30              	movq	0x30(%rsp), %rbx
14000264a: 48 83 c4 20                 	addq	$0x20, %rsp
14000264e: 5f                          	popq	%rdi
14000264f: c3                          	retq
140002650: 48 89 5c 24 10              	movq	%rbx, 0x10(%rsp)
140002655: 48 89 74 24 18              	movq	%rsi, 0x18(%rsp)
14000265a: 57                          	pushq	%rdi
14000265b: 48 83 ec 10                 	subq	$0x10, %rsp
14000265f: 33 c0                       	xorl	%eax, %eax
140002661: 33 c9                       	xorl	%ecx, %ecx
140002663: 0f a2                       	cpuid
140002665: 44 8b c1                    	movl	%ecx, %r8d
140002668: 45 33 db                    	xorl	%r11d, %r11d
14000266b: 44 8b d2                    	movl	%edx, %r10d
14000266e: 41 81 f0 6e 74 65 6c        	xorl	$0x6c65746e, %r8d       # imm = 0x6C65746E
140002675: 41 81 f2 69 6e 65 49        	xorl	$0x49656e69, %r10d      # imm = 0x49656E69
14000267c: 44 8b cb                    	movl	%ebx, %r9d
14000267f: 8b f0                       	movl	%eax, %esi
140002681: 33 c9                       	xorl	%ecx, %ecx
140002683: 41 8d 43 01                 	leal	0x1(%r11), %eax
140002687: 45 0b d0                    	orl	%r8d, %r10d
14000268a: 0f a2                       	cpuid
14000268c: 41 81 f1 47 65 6e 75        	xorl	$0x756e6547, %r9d       # imm = 0x756E6547
140002693: 89 04 24                    	movl	%eax, (%rsp)
140002696: 45 0b d1                    	orl	%r9d, %r10d
140002699: 89 5c 24 04                 	movl	%ebx, 0x4(%rsp)
14000269d: 8b f9                       	movl	%ecx, %edi
14000269f: 89 4c 24 08                 	movl	%ecx, 0x8(%rsp)
1400026a3: 89 54 24 0c                 	movl	%edx, 0xc(%rsp)
1400026a7: 75 5b                       	jne	0x140002704 <.text+0x1704>
1400026a9: 48 83 0d ef 19 00 00 ff     	orq	$-0x1, 0x19ef(%rip)     # 0x1400040a0
1400026b1: 25 f0 3f ff 0f              	andl	$0xfff3ff0, %eax        # imm = 0xFFF3FF0
1400026b6: 48 c7 05 d7 19 00 00 00 80 00 00    	movq	$0x8000, 0x19d7(%rip) # imm = 0x8000
                                                                        # 0x140004098
1400026c1: 3d c0 06 01 00              	cmpl	$0x106c0, %eax          # imm = 0x106C0
1400026c6: 74 28                       	je	0x1400026f0 <.text+0x16f0>
1400026c8: 3d 60 06 02 00              	cmpl	$0x20660, %eax          # imm = 0x20660
1400026cd: 74 21                       	je	0x1400026f0 <.text+0x16f0>
1400026cf: 3d 70 06 02 00              	cmpl	$0x20670, %eax          # imm = 0x20670
1400026d4: 74 1a                       	je	0x1400026f0 <.text+0x16f0>
1400026d6: 05 b0 f9 fc ff              	addl	$0xfffcf9b0, %eax       # imm = 0xFFFCF9B0
1400026db: 83 f8 20                    	cmpl	$0x20, %eax
1400026de: 77 24                       	ja	0x140002704 <.text+0x1704>
1400026e0: 48 b9 01 00 01 00 01 00 00 00       	movabsq	$0x100010001, %rcx # imm = 0x100010001
1400026ea: 48 0f a3 c1                 	btq	%rax, %rcx
1400026ee: 73 14                       	jae	0x140002704 <.text+0x1704>
1400026f0: 44 8b 05 8d a5 00 00        	movl	0xa58d(%rip), %r8d      # 0x14000cc84
1400026f7: 41 83 c8 01                 	orl	$0x1, %r8d
1400026fb: 44 89 05 82 a5 00 00        	movl	%r8d, 0xa582(%rip)      # 0x14000cc84
140002702: eb 07                       	jmp	0x14000270b <.text+0x170b>
140002704: 44 8b 05 79 a5 00 00        	movl	0xa579(%rip), %r8d      # 0x14000cc84
14000270b: b8 07 00 00 00              	movl	$0x7, %eax
140002710: 44 8d 48 fb                 	leal	-0x5(%rax), %r9d
140002714: 3b f0                       	cmpl	%eax, %esi
140002716: 7c 26                       	jl	0x14000273e <.text+0x173e>
140002718: 33 c9                       	xorl	%ecx, %ecx
14000271a: 0f a2                       	cpuid
14000271c: 89 04 24                    	movl	%eax, (%rsp)
14000271f: 44 8b db                    	movl	%ebx, %r11d
140002722: 89 5c 24 04                 	movl	%ebx, 0x4(%rsp)
140002726: 89 4c 24 08                 	movl	%ecx, 0x8(%rsp)
14000272a: 89 54 24 0c                 	movl	%edx, 0xc(%rsp)
14000272e: 0f ba e3 09                 	btl	$0x9, %ebx
140002732: 73 0a                       	jae	0x14000273e <.text+0x173e>
140002734: 45 0b c1                    	orl	%r9d, %r8d
140002737: 44 89 05 46 a5 00 00        	movl	%r8d, 0xa546(%rip)      # 0x14000cc84
14000273e: c7 05 48 19 00 00 01 00 00 00       	movl	$0x1, 0x1948(%rip) # 0x140004090
140002748: 44 89 0d 45 19 00 00        	movl	%r9d, 0x1945(%rip)      # 0x140004094
14000274f: 0f ba e7 14                 	btl	$0x14, %edi
140002753: 0f 83 91 00 00 00           	jae	0x1400027ea <.text+0x17ea>
140002759: 44 89 0d 30 19 00 00        	movl	%r9d, 0x1930(%rip)      # 0x140004090
140002760: bb 06 00 00 00              	movl	$0x6, %ebx
140002765: 89 1d 29 19 00 00           	movl	%ebx, 0x1929(%rip)      # 0x140004094
14000276b: 0f ba e7 1b                 	btl	$0x1b, %edi
14000276f: 73 79                       	jae	0x1400027ea <.text+0x17ea>
140002771: 0f ba e7 1c                 	btl	$0x1c, %edi
140002775: 73 73                       	jae	0x1400027ea <.text+0x17ea>
140002777: 33 c9                       	xorl	%ecx, %ecx
140002779: 0f 01 d0                    	xgetbv
14000277c: 48 c1 e2 20                 	shlq	$0x20, %rdx
140002780: 48 0b d0                    	orq	%rax, %rdx
140002783: 48 89 54 24 20              	movq	%rdx, 0x20(%rsp)
140002788: 48 8b 44 24 20              	movq	0x20(%rsp), %rax
14000278d: 22 c3                       	andb	%bl, %al
14000278f: 3a c3                       	cmpb	%bl, %al
140002791: 75 57                       	jne	0x1400027ea <.text+0x17ea>
140002793: 8b 05 fb 18 00 00           	movl	0x18fb(%rip), %eax      # 0x140004094
140002799: 83 c8 08                    	orl	$0x8, %eax
14000279c: c7 05 ea 18 00 00 03 00 00 00       	movl	$0x3, 0x18ea(%rip) # 0x140004090
1400027a6: 89 05 e8 18 00 00           	movl	%eax, 0x18e8(%rip)      # 0x140004094
1400027ac: 41 f6 c3 20                 	testb	$0x20, %r11b
1400027b0: 74 38                       	je	0x1400027ea <.text+0x17ea>
1400027b2: 83 c8 20                    	orl	$0x20, %eax
1400027b5: c7 05 d1 18 00 00 05 00 00 00       	movl	$0x5, 0x18d1(%rip) # 0x140004090
1400027bf: 89 05 cf 18 00 00           	movl	%eax, 0x18cf(%rip)      # 0x140004094
1400027c5: b8 00 00 03 d0              	movl	$0xd0030000, %eax       # imm = 0xD0030000
1400027ca: 44 23 d8                    	andl	%eax, %r11d
1400027cd: 44 3b d8                    	cmpl	%eax, %r11d
1400027d0: 75 18                       	jne	0x1400027ea <.text+0x17ea>
1400027d2: 48 8b 44 24 20              	movq	0x20(%rsp), %rax
1400027d7: 24 e0                       	andb	$-0x20, %al
1400027d9: 3c e0                       	cmpb	$-0x20, %al
1400027db: 75 0d                       	jne	0x1400027ea <.text+0x17ea>
1400027dd: 83 0d b0 18 00 00 40        	orl	$0x40, 0x18b0(%rip)     # 0x140004094
1400027e4: 89 1d a6 18 00 00           	movl	%ebx, 0x18a6(%rip)      # 0x140004090
1400027ea: 48 8b 5c 24 28              	movq	0x28(%rsp), %rbx
1400027ef: 33 c0                       	xorl	%eax, %eax
1400027f1: 48 8b 74 24 30              	movq	0x30(%rsp), %rsi
1400027f6: 48 83 c4 10                 	addq	$0x10, %rsp
1400027fa: 5f                          	popq	%rdi
1400027fb: c3                          	retq
1400027fc: 33 c0                       	xorl	%eax, %eax
1400027fe: 39 05 ac 18 00 00           	cmpl	%eax, 0x18ac(%rip)      # 0x1400040b0
140002804: 0f 95 c0                    	setne	%al
140002807: c3                          	retq
140002808: cc                          	int3
140002809: cc                          	int3
14000280a: cc                          	int3
14000280b: cc                          	int3
14000280c: cc                          	int3
14000280d: cc                          	int3
14000280e: cc                          	int3
14000280f: cc                          	int3
140002810: ff 25 ba 08 00 00           	jmpq	*0x8ba(%rip)            # 0x1400030d0
140002816: ff 25 a4 08 00 00           	jmpq	*0x8a4(%rip)            # 0x1400030c0
14000281c: ff 25 06 09 00 00           	jmpq	*0x906(%rip)            # 0x140003128
140002822: ff 25 30 09 00 00           	jmpq	*0x930(%rip)            # 0x140003158
140002828: ff 25 42 09 00 00           	jmpq	*0x942(%rip)            # 0x140003170
14000282e: ff 25 bc 08 00 00           	jmpq	*0x8bc(%rip)            # 0x1400030f0
140002834: ff 25 c6 08 00 00           	jmpq	*0x8c6(%rip)            # 0x140003100
14000283a: ff 25 40 09 00 00           	jmpq	*0x940(%rip)            # 0x140003180
140002840: ff 25 32 09 00 00           	jmpq	*0x932(%rip)            # 0x140003178
140002846: ff 25 3c 09 00 00           	jmpq	*0x93c(%rip)            # 0x140003188
14000284c: ff 25 16 09 00 00           	jmpq	*0x916(%rip)            # 0x140003168
140002852: ff 25 08 09 00 00           	jmpq	*0x908(%rip)            # 0x140003160
140002858: ff 25 3a 09 00 00           	jmpq	*0x93a(%rip)            # 0x140003198
14000285e: ff 25 ec 08 00 00           	jmpq	*0x8ec(%rip)            # 0x140003150
140002864: ff 25 de 08 00 00           	jmpq	*0x8de(%rip)            # 0x140003148
14000286a: ff 25 d0 08 00 00           	jmpq	*0x8d0(%rip)            # 0x140003140
140002870: ff 25 c2 08 00 00           	jmpq	*0x8c2(%rip)            # 0x140003138
140002876: ff 25 b4 08 00 00           	jmpq	*0x8b4(%rip)            # 0x140003130
14000287c: ff 25 5e 08 00 00           	jmpq	*0x85e(%rip)            # 0x1400030e0
140002882: ff 25 40 08 00 00           	jmpq	*0x840(%rip)            # 0x1400030c8
140002888: ff 25 22 09 00 00           	jmpq	*0x922(%rip)            # 0x1400031b0
14000288e: ff 25 8c 08 00 00           	jmpq	*0x88c(%rip)            # 0x140003120
140002894: ff 25 7e 08 00 00           	jmpq	*0x87e(%rip)            # 0x140003118
14000289a: ff 25 70 08 00 00           	jmpq	*0x870(%rip)            # 0x140003110
1400028a0: ff 25 62 08 00 00           	jmpq	*0x862(%rip)            # 0x140003108
1400028a6: ff 25 ec 07 00 00           	jmpq	*0x7ec(%rip)            # 0x140003098
1400028ac: ff 25 ee 07 00 00           	jmpq	*0x7ee(%rip)            # 0x1400030a0
1400028b2: ff 25 f8 07 00 00           	jmpq	*0x7f8(%rip)            # 0x1400030b0
1400028b8: ff 25 d2 07 00 00           	jmpq	*0x7d2(%rip)            # 0x140003090
1400028be: ff 25 e4 07 00 00           	jmpq	*0x7e4(%rip)            # 0x1400030a8
1400028c4: ff 25 be 07 00 00           	jmpq	*0x7be(%rip)            # 0x140003088
1400028ca: cc                          	int3
1400028cb: cc                          	int3
1400028cc: cc                          	int3
1400028cd: cc                          	int3
1400028ce: cc                          	int3
1400028cf: cc                          	int3
1400028d0: cc                          	int3
1400028d1: cc                          	int3
1400028d2: cc                          	int3
1400028d3: cc                          	int3
1400028d4: cc                          	int3
1400028d5: cc                          	int3
1400028d6: 66 66 0f 1f 84 00 00 00 00 00       	nopw	(%rax,%rax)
1400028e0: ff e0                       	jmpq	*%rax
1400028e2: cc                          	int3
1400028e3: cc                          	int3
1400028e4: cc                          	int3
1400028e5: cc                          	int3
1400028e6: cc                          	int3
1400028e7: cc                          	int3
1400028e8: cc                          	int3
1400028e9: cc                          	int3
1400028ea: cc                          	int3
1400028eb: cc                          	int3
1400028ec: cc                          	int3
1400028ed: cc                          	int3
1400028ee: cc                          	int3
1400028ef: cc                          	int3
1400028f0: cc                          	int3
1400028f1: cc                          	int3
1400028f2: cc                          	int3
1400028f3: cc                          	int3
1400028f4: cc                          	int3
1400028f5: cc                          	int3
1400028f6: 66 66 0f 1f 84 00 00 00 00 00       	nopw	(%rax,%rax)
140002900: ff 25 ca 08 00 00           	jmpq	*0x8ca(%rip)            # 0x1400031d0
140002906: 40 55                       	pushq	%rbp
140002908: 48 83 ec 20                 	subq	$0x20, %rsp
14000290c: 48 8b ea                    	movq	%rdx, %rbp
14000290f: 48 8b 01                    	movq	(%rcx), %rax
140002912: 48 8b d1                    	movq	%rcx, %rdx
140002915: 8b 08                       	movl	(%rax), %ecx
140002917: e8 06 ff ff ff              	callq	0x140002822 <.text+0x1822>
14000291c: 90                          	nop
14000291d: 48 83 c4 20                 	addq	$0x20, %rsp
140002921: 5d                          	popq	%rbp
140002922: c3                          	retq
140002923: cc                          	int3
140002924: 40 55                       	pushq	%rbp
140002926: 48 8b ea                    	movq	%rdx, %rbp
140002929: 48 8b 01                    	movq	(%rcx), %rax
14000292c: 33 c9                       	xorl	%ecx, %ecx
14000292e: 81 38 05 00 00 c0           	cmpl	$0xc0000005, (%rax)     # imm = 0xC0000005
140002934: 0f 94 c1                    	sete	%cl
140002937: 8b c1                       	movl	%ecx, %eax
140002939: 5d                          	popq	%rbp
14000293a: c3                          	retq
14000293b: cc                          	int3
